Certificate:
    Data:
        Version: 3 (0x2)
        Serial Number:
            22:b5:12:36:9f:b5:f9:00:c2:cf:9d:91:6f:b4:86:5d:c7:6b:2c:fa
        Signature Algorithm: sha1WithRSAEncryption
        Issuer: C=AU, O=Dodgy Brothers, CN=Dodgy CA
        Validity
            Not Before: Jan  2 06:44:51 2025 GMT
            Not After : Jan  2 06:44:51 2028 GMT
        Subject: C=AU, O=Dodgy Brothers, CN=Dodgy CA
        Subject Public Key Info:
            Public Key Algorithm: rsaEncryption
                Public-Key: (2048 bit)
                Modulus:
                    00:96:9d:a4:3d:00:4b:1c:5f:c6:cb:dd:8f:d2:31:
                    b2:88:15:cc:c4:86:2c:5c:e2:69:8b:84:f4:a7:a3:
                    53:df:91:e3:bf:51:89:fb:f0:7c:10:0d:3b:ad:ac:
                    35:62:75:f5:7f:ff:f4:6e:54:8f:05:a6:92:23:b3:
                    9f:59:39:d0:39:18:b0:10:40:de:62:73:8a:4e:b0:
                    8e:df:dc:e7:c9:41:22:54:84:80:08:29:bc:35:3c:
                    86:df:30:de:dd:b4:24:ff:7e:62:a5:c0:7a:e8:2a:
                    16:3f:d6:97:da:c5:42:db:2f:69:64:91:cb:08:d7:
                    56:5a:79:7f:1b:84:41:e9:4d:9d:77:09:10:a8:6c:
                    29:33:44:c6:c0:54:65:e6:e8:e3:f2:75:05:6a:64:
                    95:6c:c0:f4:fd:25:61:6e:48:36:f0:c0:03:07:05:
                    d6:7c:e5:11:fd:18:e8:4a:2d:d3:72:0c:37:28:36:
                    31:31:38:85:e8:71:8d:d8:02:49:c8:bc:19:89:c5:
                    8a:b1:3f:a2:35:ea:aa:90:1c:64:68:7b:af:67:6a:
                    5a:06:54:0f:50:e1:f9:b4:f6:be:3a:d4:ce:3f:1e:
                    4c:7d:c6:77:32:3e:a2:58:ed:db:dd:74:d8:92:14:
                    6a:a8:f7:cb:34:58:91:a8:7c:14:b1:7d:08:b3:4d:
                    b1:47
                Exponent: 65537 (0x10001)
        X509v3 extensions:
            X509v3 Subject Key Identifier: 
                B4:11:33:F1:D7:E2:5E:F7:53:9E:20:22:10:4F:86:06:BF:1F:C9:5E
            X509v3 Authority Key Identifier: 
                keyid:B4:11:33:F1:D7:E2:5E:F7:53:9E:20:22:10:4F:86:06:BF:1F:C9:5E
                DirName:/C=AU/O=Dodgy Brothers/CN=Dodgy CA
                serial:22:B5:12:36:9F:B5:F9:00:C2:CF:9D:91:6F:B4:86:5D:C7:6B:2C:FA
            X509v3 Basic Constraints: critical
                CA:TRUE, pathlen:1
            X509v3 Key Usage: 
                Certificate Sign, CRL Sign
            X509v3 Issuer Alternative Name: 
                <EMPTY>

    Signature Algorithm: sha1WithRSAEncryption
    Signature Value:
        43:56:04:2b:8c:ba:a2:a7:89:ca:8b:7c:ac:2d:52:b5:55:a5:
        01:07:6d:a6:73:da:72:33:60:07:49:9e:2c:75:6b:4a:e9:e3:
        d2:9f:43:72:70:51:fd:c0:e4:e2:4a:35:52:22:05:a5:27:f6:
        18:32:79:ac:57:d3:81:ae:80:73:f5:99:36:a9:11:6d:47:0f:
        d6:a0:b5:92:4c:be:e2:1f:64:f1:ca:de:03:2d:5b:dd:00:ad:
        0d:c6:9e:18:b9:18:62:1b:3d:a1:fd:a0:3b:1d:a9:33:90:03:
        4e:6e:7d:c2:96:de:d3:98:6a:3a:b3:81:e9:4f:31:53:27:3a:
        f4:bd:85:2c:82:53:32:ce:0a:c2:eb:78:02:39:b5:3c:ad:c4:
        67:0c:c7:0a:41:b5:42:a5:5e:8d:16:a9:33:f0:b1:d1:43:0a:
        0a:67:34:49:72:9a:90:b8:01:28:42:f8:b5:d9:5c:9f:c7:7f:
        62:61:11:6a:d7:0a:d1:0e:4b:43:4e:9c:85:28:42:db:e8:bc:
        ee:ca:63:3d:9e:05:57:9b:55:fa:40:dc:ee:71:b9:ba:e1:7d:
        a8:c1:bb:8a:89:d9:fe:e7:76:48:06:77:88:ca:43:d1:02:9a:
        58:3b:ea:69:f0:57:6e:70:20:15:68:49:b9:6c:89:84:35:2c:
        9e:6d:3e:06
-----BEGIN CERTIFICATE-----
MIIDxTCCAq2gAwIBAgIUIrUSNp+1+QDCz52Rb7SGXcdrLPowDQYJKoZIhvcNAQEF
BQAwOTELMAkGA1UEBhMCQVUxFzAVBgNVBAoMDkRvZGd5IEJyb3RoZXJzMREwDwYD
VQQDDAhEb2RneSBDQTAeFw0yNTAxMDIwNjQ0NTFaFw0yODAxMDIwNjQ0NTFaMDkx
CzAJBgNVBAYTAkFVMRcwFQYDVQQKDA5Eb2RneSBCcm90aGVyczERMA8GA1UEAwwI
RG9kZ3kgQ0EwggEiMA0GCSqGSIb3DQEBAQUAA4IBDwAwggEKAoIBAQCWnaQ9AEsc
X8bL3Y/SMbKIFczEhixc4mmLhPSno1PfkeO/UYn78HwQDTutrDVidfV///RuVI8F
ppIjs59ZOdA5GLAQQN5ic4pOsI7f3OfJQSJUhIAIKbw1PIbfMN7dtCT/fmKlwHro
KhY/1pfaxULbL2lkkcsI11ZaeX8bhEHpTZ13CRCobCkzRMbAVGXm6OPydQVqZJVs
wPT9JWFuSDbwwAMHBdZ85RH9GOhKLdNyDDcoNjExOIXocY3YAknIvBmJxYqxP6I1
6qqQHGRoe69naloGVA9Q4fm09r461M4/Hkx9xncyPqJY7dvddNiSFGqo98s0WJGo
fBSxfQizTbFHAgMBAAGjgcQwgcEwHQYDVR0OBBYEFLQRM/HX4l73U54gIhBPhga/
H8leMHQGA1UdIwRtMGuAFLQRM/HX4l73U54gIhBPhga/H8leoT2kOzA5MQswCQYD
VQQGEwJBVTEXMBUGA1UECgwORG9kZ3kgQnJvdGhlcnMxETAPBgNVBAMMCERvZGd5
IENBghQitRI2n7X5AMLPnZFvtIZdx2ss+jASBgNVHRMBAf8ECDAGAQH/AgEBMAsG
A1UdDwQEAwIBBjAJBgNVHRIEAjAAMA0GCSqGSIb3DQEBBQUAA4IBAQBDVgQrjLqi
p4nKi3ysLVK1VaUBB22mc9pyM2AHSZ4sdWtK6ePSn0NycFH9wOTiSjVSIgWlJ/YY
MnmsV9OBroBz9Zk2qRFtRw/WoLWSTL7iH2Txyt4DLVvdAK0Nxp4YuRhiGz2h/aA7
HakzkANObn3Clt7TmGo6s4HpTzFTJzr0vYUsglMyzgrC63gCObU8rcRnDMcKQbVC
pV6NFqkz8LHRQwoKZzRJcpqQuAEoQvi12Vyfx39iYRFq1wrRDktDTpyFKELb6Lzu
ymM9ngVXm1X6QNzucbm64X2owbuKidn+53ZIBneIykPRAppYO+pp8FducCAVaEm5
bImENSyebT4G
-----END CERTIFICATE-----
