Certificate:
    Data:
        Version: 3 (0x2)
        Serial Number:
            77:73:21:81:d0:1d:09:9a:9e:8e:c7:81:7a:8b:8c:d9:a2:bb:29:d7
        Signature Algorithm: sha1WithRSAEncryption
        Issuer: C=AU, O=Dodgy Brothers, CN=Dodgy CA
        Validity
            Not Before: Jan  2 06:44:54 2025 GMT
            Not After : Jan  2 06:44:54 2026 GMT
        Subject: C=AU, O=Dodgy Brothers, CN=Brother 1, CN=nextupdate_utctime
        Subject Public Key Info:
            Public Key Algorithm: rsaEncryption
                Public-Key: (2048 bit)
                Modulus:
                    00:be:95:86:fa:71:4c:6a:ea:51:98:50:4b:99:a1:
                    2c:66:15:f3:60:f3:e1:ff:69:fb:ce:48:01:1d:fe:
                    e1:2c:38:b0:e3:bd:8f:4b:48:a7:7e:3a:c6:73:e3:
                    ab:bf:e1:da:6e:96:f5:fe:c3:e4:b4:a8:ad:bc:56:
                    34:d4:96:25:74:27:c3:10:db:35:10:25:1c:8e:4b:
                    81:9b:fb:42:04:7c:6f:3d:e2:38:6c:0e:e4:2e:8e:
                    2a:18:6d:30:cd:67:2a:23:6b:37:cf:05:9f:cc:b7:
                    59:58:7f:ba:c4:0a:3f:8c:a4:ad:cb:98:9c:c0:f2:
                    8f:69:67:0f:c1:4e:33:cf:fc:85:5e:bb:5e:cf:93:
                    b0:cf:d9:f4:52:79:87:b1:f8:4d:15:68:65:d5:b7:
                    19:08:63:7f:5e:b1:34:ad:05:8f:5a:f0:e4:e1:8f:
                    25:f2:5c:5c:61:95:b0:56:2d:31:2b:08:65:79:e5:
                    b1:3b:9d:3e:b9:52:4b:ac:5d:c4:58:66:85:8d:81:
                    b3:04:28:f4:3f:2f:ac:92:01:62:d5:fd:8e:0b:da:
                    02:0c:7a:c7:6e:09:1c:ac:1c:b2:4c:d7:54:b8:26:
                    33:b2:5f:14:f3:b1:f9:3d:62:4d:40:99:6b:b6:e7:
                    89:58:97:d6:d4:4d:ea:4b:68:52:f3:3c:a8:b1:35:
                    88:db
                Exponent: 65537 (0x10001)
        X509v3 extensions:
            X509v3 Subject Key Identifier: 
                A1:DF:33:C3:CF:3E:53:41:A7:68:44:CC:AA:19:E1:84:C9:0D:BC:C6
            X509v3 Authority Key Identifier: 
                keyid:B4:11:33:F1:D7:E2:5E:F7:53:9E:20:22:10:4F:86:06:BF:1F:C9:5E
                DirName:/C=AU/O=Dodgy Brothers/CN=Dodgy CA
                serial:22:B5:12:36:9F:B5:F9:00:C2:CF:9D:91:6F:B4:86:5D:C7:6B:2C:FA
            X509v3 Basic Constraints: critical
                CA:TRUE, pathlen:1
            X509v3 Key Usage: 
                Certificate Sign, CRL Sign
            X509v3 Issuer Alternative Name: 
                <EMPTY>

    Signature Algorithm: sha1WithRSAEncryption
    Signature Value:
        75:5d:5a:22:90:de:89:a6:9f:29:95:2e:c0:14:f6:ed:08:b7:
        b1:06:57:79:9a:e6:47:f3:b9:a4:97:36:43:f6:e3:f0:97:e5:
        ae:e8:4f:90:74:13:e7:81:6e:48:50:42:13:75:5b:f9:5c:27:
        04:b2:eb:cc:a4:97:bc:4d:7d:39:32:b2:93:9b:3d:fb:f8:a3:
        ba:37:03:7e:b3:b3:38:42:15:bd:4a:08:e7:15:2a:75:6b:12:
        49:6c:9d:1c:67:21:cb:ef:b0:9c:0d:59:cf:df:87:86:36:3b:
        e6:b6:1d:c6:06:08:91:7d:60:f5:98:25:fe:8b:2f:3f:44:c2:
        a0:6c:bf:c0:e6:1e:8c:27:6e:1a:f6:cd:a5:5d:56:99:6f:e9:
        ab:13:f0:a6:a6:7d:7b:bc:a2:29:2c:23:5a:bd:fa:ca:00:4f:
        93:4e:2b:a5:68:d3:9a:2c:89:65:5f:54:45:26:e5:ad:8b:fc:
        4e:7c:9d:52:ea:41:dd:88:32:31:f5:03:94:64:eb:51:3b:5a:
        d2:07:42:ad:01:5d:9c:ec:ac:42:69:49:29:d0:a2:e9:5b:2a:
        3a:ce:be:ea:77:a7:97:e8:ab:1f:12:58:23:b6:ff:a0:94:81:
        78:b5:08:3f:38:eb:d3:5b:2f:a8:39:78:ab:c7:b4:76:be:76:
        06:e5:13:96
-----BEGIN CERTIFICATE-----
MIID4zCCAsugAwIBAgIUd3MhgdAdCZqejseBeouM2aK7KdcwDQYJKoZIhvcNAQEF
BQAwOTELMAkGA1UEBhMCQVUxFzAVBgNVBAoMDkRvZGd5IEJyb3RoZXJzMREwDwYD
VQQDDAhEb2RneSBDQTAeFw0yNTAxMDIwNjQ0NTRaFw0yNjAxMDIwNjQ0NTRaMFcx
CzAJBgNVBAYTAkFVMRcwFQYDVQQKDA5Eb2RneSBCcm90aGVyczESMBAGA1UEAwwJ
QnJvdGhlciAxMRswGQYDVQQDDBJuZXh0dXBkYXRlX3V0Y3RpbWUwggEiMA0GCSqG
SIb3DQEBAQUAA4IBDwAwggEKAoIBAQC+lYb6cUxq6lGYUEuZoSxmFfNg8+H/afvO
SAEd/uEsOLDjvY9LSKd+OsZz46u/4dpulvX+w+S0qK28VjTUliV0J8MQ2zUQJRyO
S4Gb+0IEfG894jhsDuQujioYbTDNZyojazfPBZ/Mt1lYf7rECj+MpK3LmJzA8o9p
Zw/BTjPP/IVeu17Pk7DP2fRSeYex+E0VaGXVtxkIY39esTStBY9a8OThjyXyXFxh
lbBWLTErCGV55bE7nT65UkusXcRYZoWNgbMEKPQ/L6ySAWLV/Y4L2gIMesduCRys
HLJM11S4JjOyXxTzsfk9Yk1AmWu254lYl9bUTepLaFLzPKixNYjbAgMBAAGjgcQw
gcEwHQYDVR0OBBYEFKHfM8PPPlNBp2hEzKoZ4YTJDbzGMHQGA1UdIwRtMGuAFLQR
M/HX4l73U54gIhBPhga/H8leoT2kOzA5MQswCQYDVQQGEwJBVTEXMBUGA1UECgwO
RG9kZ3kgQnJvdGhlcnMxETAPBgNVBAMMCERvZGd5IENBghQitRI2n7X5AMLPnZFv
tIZdx2ss+jASBgNVHRMBAf8ECDAGAQH/AgEBMAsGA1UdDwQEAwIBBjAJBgNVHRIE
AjAAMA0GCSqGSIb3DQEBBQUAA4IBAQB1XVoikN6Jpp8plS7AFPbtCLexBld5muZH
87mklzZD9uPwl+Wu6E+QdBPngW5IUEITdVv5XCcEsuvMpJe8TX05MrKTmz37+KO6
NwN+s7M4QhW9SgjnFSp1axJJbJ0cZyHL77CcDVnP34eGNjvmth3GBgiRfWD1mCX+
iy8/RMKgbL/A5h6MJ24a9s2lXVaZb+mrE/Cmpn17vKIpLCNavfrKAE+TTiulaNOa
LIllX1RFJuWti/xOfJ1S6kHdiDIx9QOUZOtRO1rSB0KtAV2c7KxCaUkp0KLpWyo6
zr7qd6eX6KsfElgjtv+glIF4tQg/OOvTWy+oOXirx7R2vnYG5ROW
-----END CERTIFICATE-----
