Certificate:
    Data:
        Version: 3 (0x2)
        Serial Number:
            77:73:21:81:d0:1d:09:9a:9e:8e:c7:81:7a:8b:8c:d9:a2:bb:29:d4
        Signature Algorithm: sha1WithRSAEncryption
        Issuer: C=AU, O=Dodgy Brothers, CN=Dodgy CA
        Validity
            Not Before: Jan  2 06:44:53 2025 GMT
            Not After : Jan  2 06:44:53 2026 GMT
        Subject: C=AU, O=Dodgy Brothers, CN=Brother 1, CN=lastupdate_utctime
        Subject Public Key Info:
            Public Key Algorithm: rsaEncryption
                Public-Key: (2048 bit)
                Modulus:
                    00:be:95:86:fa:71:4c:6a:ea:51:98:50:4b:99:a1:
                    2c:66:15:f3:60:f3:e1:ff:69:fb:ce:48:01:1d:fe:
                    e1:2c:38:b0:e3:bd:8f:4b:48:a7:7e:3a:c6:73:e3:
                    ab:bf:e1:da:6e:96:f5:fe:c3:e4:b4:a8:ad:bc:56:
                    34:d4:96:25:74:27:c3:10:db:35:10:25:1c:8e:4b:
                    81:9b:fb:42:04:7c:6f:3d:e2:38:6c:0e:e4:2e:8e:
                    2a:18:6d:30:cd:67:2a:23:6b:37:cf:05:9f:cc:b7:
                    59:58:7f:ba:c4:0a:3f:8c:a4:ad:cb:98:9c:c0:f2:
                    8f:69:67:0f:c1:4e:33:cf:fc:85:5e:bb:5e:cf:93:
                    b0:cf:d9:f4:52:79:87:b1:f8:4d:15:68:65:d5:b7:
                    19:08:63:7f:5e:b1:34:ad:05:8f:5a:f0:e4:e1:8f:
                    25:f2:5c:5c:61:95:b0:56:2d:31:2b:08:65:79:e5:
                    b1:3b:9d:3e:b9:52:4b:ac:5d:c4:58:66:85:8d:81:
                    b3:04:28:f4:3f:2f:ac:92:01:62:d5:fd:8e:0b:da:
                    02:0c:7a:c7:6e:09:1c:ac:1c:b2:4c:d7:54:b8:26:
                    33:b2:5f:14:f3:b1:f9:3d:62:4d:40:99:6b:b6:e7:
                    89:58:97:d6:d4:4d:ea:4b:68:52:f3:3c:a8:b1:35:
                    88:db
                Exponent: 65537 (0x10001)
        X509v3 extensions:
            X509v3 Subject Key Identifier: 
                A1:DF:33:C3:CF:3E:53:41:A7:68:44:CC:AA:19:E1:84:C9:0D:BC:C6
            X509v3 Authority Key Identifier: 
                keyid:B4:11:33:F1:D7:E2:5E:F7:53:9E:20:22:10:4F:86:06:BF:1F:C9:5E
                DirName:/C=AU/O=Dodgy Brothers/CN=Dodgy CA
                serial:22:B5:12:36:9F:B5:F9:00:C2:CF:9D:91:6F:B4:86:5D:C7:6B:2C:FA
            X509v3 Basic Constraints: critical
                CA:TRUE, pathlen:1
            X509v3 Key Usage: 
                Certificate Sign, CRL Sign
            X509v3 Issuer Alternative Name: 
                <EMPTY>

    Signature Algorithm: sha1WithRSAEncryption
    Signature Value:
        06:2f:79:07:38:fb:35:29:0b:52:c8:a1:ac:68:e8:88:b7:4e:
        63:38:26:c8:a4:c2:39:cc:26:1b:f0:9b:04:a7:99:af:96:02:
        85:cc:2b:ea:78:27:d6:a8:1c:d5:ca:be:72:44:45:91:88:5c:
        ab:2c:36:d0:a9:fa:3e:e0:27:65:85:1f:fb:1b:23:27:b3:26:
        bf:6e:56:19:08:ad:ab:4b:6f:d4:f5:72:df:d0:f0:76:67:0a:
        79:8d:66:35:8d:7a:ef:e8:9a:d4:f7:56:51:4f:a1:d9:80:ad:
        e4:b3:b9:a3:c5:b6:d4:88:27:41:63:0d:e2:5a:b7:9b:b1:3c:
        f4:fb:2e:c9:b7:60:09:f3:cd:fc:18:53:14:8b:28:cc:71:d6:
        a7:83:cc:12:15:fc:5b:71:4c:59:ad:cf:a0:26:54:80:36:d8:
        13:78:8d:c4:a3:1e:2e:ba:44:52:89:6b:71:63:38:0e:70:4e:
        48:2c:7c:3c:bb:b6:f3:68:60:00:25:35:07:16:7e:c7:b3:52:
        f8:20:8e:a9:b9:c9:f0:87:bd:66:61:5e:68:c4:b0:0f:d8:ed:
        77:bc:a7:b6:01:2f:55:f6:d7:06:43:ff:7a:f5:39:3a:35:21:
        b8:de:41:3b:df:5c:f7:cd:04:d3:e4:c6:eb:b3:05:76:ad:24:
        65:18:6e:cc
-----BEGIN CERTIFICATE-----
MIID4zCCAsugAwIBAgIUd3MhgdAdCZqejseBeouM2aK7KdQwDQYJKoZIhvcNAQEF
BQAwOTELMAkGA1UEBhMCQVUxFzAVBgNVBAoMDkRvZGd5IEJyb3RoZXJzMREwDwYD
VQQDDAhEb2RneSBDQTAeFw0yNTAxMDIwNjQ0NTNaFw0yNjAxMDIwNjQ0NTNaMFcx
CzAJBgNVBAYTAkFVMRcwFQYDVQQKDA5Eb2RneSBCcm90aGVyczESMBAGA1UEAwwJ
QnJvdGhlciAxMRswGQYDVQQDDBJsYXN0dXBkYXRlX3V0Y3RpbWUwggEiMA0GCSqG
SIb3DQEBAQUAA4IBDwAwggEKAoIBAQC+lYb6cUxq6lGYUEuZoSxmFfNg8+H/afvO
SAEd/uEsOLDjvY9LSKd+OsZz46u/4dpulvX+w+S0qK28VjTUliV0J8MQ2zUQJRyO
S4Gb+0IEfG894jhsDuQujioYbTDNZyojazfPBZ/Mt1lYf7rECj+MpK3LmJzA8o9p
Zw/BTjPP/IVeu17Pk7DP2fRSeYex+E0VaGXVtxkIY39esTStBY9a8OThjyXyXFxh
lbBWLTErCGV55bE7nT65UkusXcRYZoWNgbMEKPQ/L6ySAWLV/Y4L2gIMesduCRys
HLJM11S4JjOyXxTzsfk9Yk1AmWu254lYl9bUTepLaFLzPKixNYjbAgMBAAGjgcQw
gcEwHQYDVR0OBBYEFKHfM8PPPlNBp2hEzKoZ4YTJDbzGMHQGA1UdIwRtMGuAFLQR
M/HX4l73U54gIhBPhga/H8leoT2kOzA5MQswCQYDVQQGEwJBVTEXMBUGA1UECgwO
RG9kZ3kgQnJvdGhlcnMxETAPBgNVBAMMCERvZGd5IENBghQitRI2n7X5AMLPnZFv
tIZdx2ss+jASBgNVHRMBAf8ECDAGAQH/AgEBMAsGA1UdDwQEAwIBBjAJBgNVHRIE
AjAAMA0GCSqGSIb3DQEBBQUAA4IBAQAGL3kHOPs1KQtSyKGsaOiIt05jOCbIpMI5
zCYb8JsEp5mvlgKFzCvqeCfWqBzVyr5yREWRiFyrLDbQqfo+4CdlhR/7GyMnsya/
blYZCK2rS2/U9XLf0PB2Zwp5jWY1jXrv6JrU91ZRT6HZgK3ks7mjxbbUiCdBYw3i
WrebsTz0+y7Jt2AJ8838GFMUiyjMcdang8wSFfxbcUxZrc+gJlSANtgTeI3Eox4u
ukRSiWtxYzgOcE5ILHw8u7bzaGAAJTUHFn7Hs1L4II6pucnwh71mYV5oxLAP2O13
vKe2AS9V9tcGQ/969Tk6NSG43kE731z3zQTT5MbrswV2rSRlGG7M
-----END CERTIFICATE-----
