Certificate:
    Data:
        Version: 3 (0x2)
        Serial Number:
            77:73:21:81:d0:1d:09:9a:9e:8e:c7:81:7a:8b:8c:d9:a2:bb:29:d6
        Signature Algorithm: sha1WithRSAEncryption
        Issuer: C=AU, O=Dodgy Brothers, CN=Dodgy CA
        Validity
            Not Before: Jan  2 06:44:54 2025 GMT
            Not After : Jan  2 06:44:54 2026 GMT
        Subject: C=AU, O=Dodgy Brothers, CN=Brother 1, CN=nextupdate_invalid
        Subject Public Key Info:
            Public Key Algorithm: rsaEncryption
                Public-Key: (2048 bit)
                Modulus:
                    00:be:95:86:fa:71:4c:6a:ea:51:98:50:4b:99:a1:
                    2c:66:15:f3:60:f3:e1:ff:69:fb:ce:48:01:1d:fe:
                    e1:2c:38:b0:e3:bd:8f:4b:48:a7:7e:3a:c6:73:e3:
                    ab:bf:e1:da:6e:96:f5:fe:c3:e4:b4:a8:ad:bc:56:
                    34:d4:96:25:74:27:c3:10:db:35:10:25:1c:8e:4b:
                    81:9b:fb:42:04:7c:6f:3d:e2:38:6c:0e:e4:2e:8e:
                    2a:18:6d:30:cd:67:2a:23:6b:37:cf:05:9f:cc:b7:
                    59:58:7f:ba:c4:0a:3f:8c:a4:ad:cb:98:9c:c0:f2:
                    8f:69:67:0f:c1:4e:33:cf:fc:85:5e:bb:5e:cf:93:
                    b0:cf:d9:f4:52:79:87:b1:f8:4d:15:68:65:d5:b7:
                    19:08:63:7f:5e:b1:34:ad:05:8f:5a:f0:e4:e1:8f:
                    25:f2:5c:5c:61:95:b0:56:2d:31:2b:08:65:79:e5:
                    b1:3b:9d:3e:b9:52:4b:ac:5d:c4:58:66:85:8d:81:
                    b3:04:28:f4:3f:2f:ac:92:01:62:d5:fd:8e:0b:da:
                    02:0c:7a:c7:6e:09:1c:ac:1c:b2:4c:d7:54:b8:26:
                    33:b2:5f:14:f3:b1:f9:3d:62:4d:40:99:6b:b6:e7:
                    89:58:97:d6:d4:4d:ea:4b:68:52:f3:3c:a8:b1:35:
                    88:db
                Exponent: 65537 (0x10001)
        X509v3 extensions:
            X509v3 Subject Key Identifier: 
                A1:DF:33:C3:CF:3E:53:41:A7:68:44:CC:AA:19:E1:84:C9:0D:BC:C6
            X509v3 Authority Key Identifier: 
                keyid:B4:11:33:F1:D7:E2:5E:F7:53:9E:20:22:10:4F:86:06:BF:1F:C9:5E
                DirName:/C=AU/O=Dodgy Brothers/CN=Dodgy CA
                serial:22:B5:12:36:9F:B5:F9:00:C2:CF:9D:91:6F:B4:86:5D:C7:6B:2C:FA
            X509v3 Basic Constraints: critical
                CA:TRUE, pathlen:1
            X509v3 Key Usage: 
                Certificate Sign, CRL Sign
            X509v3 Issuer Alternative Name: 
                <EMPTY>

    Signature Algorithm: sha1WithRSAEncryption
    Signature Value:
        81:df:b5:9d:e1:53:f5:18:1a:ef:d4:fa:d6:3b:d0:f8:7e:42:
        1c:d8:8b:70:b6:5c:ed:0f:93:a8:cc:9b:43:a9:c8:7c:ed:dd:
        3e:65:19:74:41:e7:f5:06:76:ad:0a:21:d6:e2:d6:95:03:02:
        c3:6f:98:72:df:6c:f3:64:90:1b:83:69:15:9a:72:b8:70:93:
        6a:e0:5a:3f:f7:5e:b9:63:44:cd:ed:ec:62:92:38:67:ed:7d:
        9e:82:cc:1e:6b:e0:7c:1b:85:07:f0:9d:66:09:c2:ff:85:c3:
        d3:16:54:08:1d:ee:b2:5c:41:ce:a8:7a:c6:95:49:3d:22:bc:
        31:3e:51:78:c1:a6:7c:eb:3d:fb:85:80:54:89:9e:7d:46:ea:
        36:05:2e:93:b4:61:6e:e8:ad:5f:be:19:71:12:31:04:fe:54:
        18:2d:9c:d6:16:47:f0:e3:31:ba:dc:c8:df:bb:66:5e:81:de:
        f2:50:18:e5:02:e5:27:9c:fc:ca:97:54:f8:f6:c1:de:e5:7f:
        64:e0:6b:61:ca:8e:c6:ab:f9:d6:3d:98:ad:36:11:88:e5:91:
        25:e8:4d:0f:c4:72:7c:e3:82:fc:63:0a:8b:b5:01:3e:81:2d:
        16:ac:98:bf:7a:db:b8:af:b4:7e:59:b0:72:05:52:31:58:2b:
        7d:82:5a:2f
-----BEGIN CERTIFICATE-----
MIID4zCCAsugAwIBAgIUd3MhgdAdCZqejseBeouM2aK7KdYwDQYJKoZIhvcNAQEF
BQAwOTELMAkGA1UEBhMCQVUxFzAVBgNVBAoMDkRvZGd5IEJyb3RoZXJzMREwDwYD
VQQDDAhEb2RneSBDQTAeFw0yNTAxMDIwNjQ0NTRaFw0yNjAxMDIwNjQ0NTRaMFcx
CzAJBgNVBAYTAkFVMRcwFQYDVQQKDA5Eb2RneSBCcm90aGVyczESMBAGA1UEAwwJ
QnJvdGhlciAxMRswGQYDVQQDDBJuZXh0dXBkYXRlX2ludmFsaWQwggEiMA0GCSqG
SIb3DQEBAQUAA4IBDwAwggEKAoIBAQC+lYb6cUxq6lGYUEuZoSxmFfNg8+H/afvO
SAEd/uEsOLDjvY9LSKd+OsZz46u/4dpulvX+w+S0qK28VjTUliV0J8MQ2zUQJRyO
S4Gb+0IEfG894jhsDuQujioYbTDNZyojazfPBZ/Mt1lYf7rECj+MpK3LmJzA8o9p
Zw/BTjPP/IVeu17Pk7DP2fRSeYex+E0VaGXVtxkIY39esTStBY9a8OThjyXyXFxh
lbBWLTErCGV55bE7nT65UkusXcRYZoWNgbMEKPQ/L6ySAWLV/Y4L2gIMesduCRys
HLJM11S4JjOyXxTzsfk9Yk1AmWu254lYl9bUTepLaFLzPKixNYjbAgMBAAGjgcQw
gcEwHQYDVR0OBBYEFKHfM8PPPlNBp2hEzKoZ4YTJDbzGMHQGA1UdIwRtMGuAFLQR
M/HX4l73U54gIhBPhga/H8leoT2kOzA5MQswCQYDVQQGEwJBVTEXMBUGA1UECgwO
RG9kZ3kgQnJvdGhlcnMxETAPBgNVBAMMCERvZGd5IENBghQitRI2n7X5AMLPnZFv
tIZdx2ss+jASBgNVHRMBAf8ECDAGAQH/AgEBMAsGA1UdDwQEAwIBBjAJBgNVHRIE
AjAAMA0GCSqGSIb3DQEBBQUAA4IBAQCB37Wd4VP1GBrv1PrWO9D4fkIc2Itwtlzt
D5OozJtDqch87d0+ZRl0Qef1BnatCiHW4taVAwLDb5hy32zzZJAbg2kVmnK4cJNq
4Fo/9165Y0TN7exikjhn7X2egswea+B8G4UH8J1mCcL/hcPTFlQIHe6yXEHOqHrG
lUk9IrwxPlF4waZ86z37hYBUiZ59Ruo2BS6TtGFu6K1fvhlxEjEE/lQYLZzWFkfw
4zG63Mjfu2Zegd7yUBjlAuUnnPzKl1T49sHe5X9k4Gthyo7Gq/nWPZitNhGI5ZEl
6E0PxHJ844L8YwqLtQE+gS0WrJi/etu4r7R+WbByBVIxWCt9glov
-----END CERTIFICATE-----
