Certificate:
    Data:
        Version: 3 (0x2)
        Serial Number:
            77:73:21:81:d0:1d:09:9a:9e:8e:c7:81:7a:8b:8c:d9:a2:bb:29:cf
        Signature Algorithm: sha256WithRSAEncryption
        Issuer: C=AU, O=Dodgy Brothers, CN=Dodgy CA
        Validity
            Not Before: Jan  2 06:44:51 2025 GMT
            Not After : Jan  2 06:44:51 2026 GMT
        Subject: C=AU, O=Dodgy Brothers, CN=Brother 1, CN=Brother 2
        Subject Public Key Info:
            Public Key Algorithm: rsaEncryption
                Public-Key: (2048 bit)
                Modulus:
                    00:a8:ff:89:58:61:85:ae:de:db:2c:0f:d5:73:fb:
                    e2:b7:a8:1b:7a:75:60:2b:d4:7d:3c:73:76:b5:ae:
                    de:93:2f:7f:24:90:6d:c9:1c:f4:8a:38:cd:9f:a2:
                    80:16:56:cb:b4:2c:bb:93:e5:17:1f:ff:0d:c6:43:
                    fe:31:34:f8:28:d8:75:e9:a3:bb:88:82:ef:a3:72:
                    e2:53:62:05:45:4d:e0:31:97:ef:aa:9d:10:d2:58:
                    0d:9e:06:9e:32:bb:1b:08:56:5d:65:0f:3f:66:8e:
                    c2:36:a0:11:ff:c0:59:35:fd:49:1c:dd:1c:42:33:
                    06:78:ae:04:38:23:e5:e7:75:67:d3:94:ad:5a:a9:
                    40:1f:ac:59:10:f5:0c:c1:64:ad:4a:c4:c6:35:53:
                    b3:96:6a:82:1b:15:8b:d1:99:ab:e4:9e:6f:94:aa:
                    d2:96:e5:57:fb:8c:91:64:8a:3c:24:16:c6:d2:19:
                    be:82:60:13:3b:62:b0:ed:3e:1d:b3:ca:f9:6b:df:
                    31:b9:7a:9e:4b:47:68:a7:29:c7:3f:4a:e2:22:27:
                    b4:ef:90:63:d7:ef:d0:72:49:3e:5b:ad:b9:1b:d4:
                    2b:6f:86:68:dd:d5:73:12:b8:43:c9:dc:41:0f:a2:
                    a3:46:4f:8b:67:88:84:0f:61:fe:79:34:1f:4a:89:
                    1f:b7
                Exponent: 65537 (0x10001)
        X509v3 extensions:
            X509v3 Basic Constraints: 
                CA:FALSE
            X509v3 Subject Key Identifier: 
                E7:9B:E2:2A:AD:8A:6C:3A:CB:76:51:E5:8E:07:98:22:97:E1:73:A2
            X509v3 Authority Key Identifier: 
                B4:11:33:F1:D7:E2:5E:F7:53:9E:20:22:10:4F:86:06:BF:1F:C9:5E
    Signature Algorithm: sha256WithRSAEncryption
    Signature Value:
        3c:68:59:7d:e8:54:0b:8e:d2:cb:36:0d:0a:40:d3:f0:c0:cf:
        97:f3:e7:97:3a:c9:67:03:4a:f4:8a:8d:75:eb:94:8c:8d:40:
        f2:db:2e:55:03:e5:59:8c:bd:99:d0:69:c2:6f:8f:be:e3:f9:
        ae:36:16:ad:2a:8a:56:95:e0:8a:c9:ff:2d:51:34:19:aa:04:
        b8:86:56:8c:d7:a9:ce:8d:d2:3a:12:83:b4:7b:e7:84:61:1e:
        c0:84:c4:73:9d:25:85:37:47:72:10:e6:0f:1c:91:62:27:cf:
        9c:d7:a1:c1:42:c9:ca:fd:92:f1:5d:f0:bb:2f:5a:dc:a8:f5:
        cc:cc:41:1c:d4:b8:68:17:11:7b:24:10:4a:4c:fa:8e:e0:7f:
        d8:a7:1f:66:ed:d4:82:5a:a9:0e:b8:9c:6c:dc:f9:51:74:6c:
        74:00:63:ad:a8:38:08:5b:fe:74:92:45:2f:4e:c0:f5:9c:a0:
        b0:30:5c:6e:1b:35:31:4a:c5:ca:15:ba:d7:ac:bf:cf:fe:6a:
        44:a7:a0:e7:ad:65:b4:b6:22:9c:e8:61:a2:21:85:a4:31:43:
        af:64:1c:8d:4d:5b:90:a8:fc:e4:6c:70:fc:7e:90:4b:8c:57:
        77:95:e4:66:de:18:fe:1c:2e:c1:f7:ca:2c:2c:ef:ea:79:89:
        50:b6:5b:ec
-----BEGIN CERTIFICATE-----
MIIDYjCCAkqgAwIBAgIUd3MhgdAdCZqejseBeouM2aK7Kc8wDQYJKoZIhvcNAQEL
BQAwOTELMAkGA1UEBhMCQVUxFzAVBgNVBAoMDkRvZGd5IEJyb3RoZXJzMREwDwYD
VQQDDAhEb2RneSBDQTAeFw0yNTAxMDIwNjQ0NTFaFw0yNjAxMDIwNjQ0NTFaME4x
CzAJBgNVBAYTAkFVMRcwFQYDVQQKDA5Eb2RneSBCcm90aGVyczESMBAGA1UEAwwJ
QnJvdGhlciAxMRIwEAYDVQQDDAlCcm90aGVyIDIwggEiMA0GCSqGSIb3DQEBAQUA
A4IBDwAwggEKAoIBAQCo/4lYYYWu3tssD9Vz++K3qBt6dWAr1H08c3a1rt6TL38k
kG3JHPSKOM2fooAWVsu0LLuT5Rcf/w3GQ/4xNPgo2HXpo7uIgu+jcuJTYgVFTeAx
l++qnRDSWA2eBp4yuxsIVl1lDz9mjsI2oBH/wFk1/Ukc3RxCMwZ4rgQ4I+XndWfT
lK1aqUAfrFkQ9QzBZK1KxMY1U7OWaoIbFYvRmavknm+UqtKW5Vf7jJFkijwkFsbS
Gb6CYBM7YrDtPh2zyvlr3zG5ep5LR2inKcc/SuIiJ7TvkGPX79ByST5brbkb1Ctv
hmjd1XMSuEPJ3EEPoqNGT4tniIQPYf55NB9KiR+3AgMBAAGjTTBLMAkGA1UdEwQC
MAAwHQYDVR0OBBYEFOeb4iqtimw6y3ZR5Y4HmCKX4XOiMB8GA1UdIwQYMBaAFLQR
M/HX4l73U54gIhBPhga/H8leMA0GCSqGSIb3DQEBCwUAA4IBAQA8aFl96FQLjtLL
Ng0KQNPwwM+X8+eXOslnA0r0io1165SMjUDy2y5VA+VZjL2Z0GnCb4++4/muNhat
KopWleCKyf8tUTQZqgS4hlaM16nOjdI6EoO0e+eEYR7AhMRznSWFN0dyEOYPHJFi
J8+c16HBQsnK/ZLxXfC7L1rcqPXMzEEc1LhoFxF7JBBKTPqO4H/Ypx9m7dSCWqkO
uJxs3PlRdGx0AGOtqDgIW/50kkUvTsD1nKCwMFxuGzUxSsXKFbrXrL/P/mpEp6Dn
rWW0tiKc6GGiIYWkMUOvZByNTVuQqPzkbHD8fpBLjFd3leRm3hj+HC7B98osLO/q
eYlQtlvs
-----END CERTIFICATE-----
