Certificate:
    Data:
        Version: 3 (0x2)
        Serial Number:
            77:73:21:81:d0:1d:09:9a:9e:8e:c7:81:7a:8b:8c:d9:a2:bb:29:d8
        Signature Algorithm: sha1WithRSAEncryption
        Issuer: C=AU, O=Dodgy Brothers, CN=Dodgy CA
        Validity
            Not Before: Jan  2 06:44:55 2025 GMT
            Not After : Jan  2 06:44:55 2026 GMT
        Subject: C=AU, O=Dodgy Brothers, CN=Brother 1, CN=nextupdate_generalizedtime
        Subject Public Key Info:
            Public Key Algorithm: rsaEncryption
                Public-Key: (2048 bit)
                Modulus:
                    00:be:95:86:fa:71:4c:6a:ea:51:98:50:4b:99:a1:
                    2c:66:15:f3:60:f3:e1:ff:69:fb:ce:48:01:1d:fe:
                    e1:2c:38:b0:e3:bd:8f:4b:48:a7:7e:3a:c6:73:e3:
                    ab:bf:e1:da:6e:96:f5:fe:c3:e4:b4:a8:ad:bc:56:
                    34:d4:96:25:74:27:c3:10:db:35:10:25:1c:8e:4b:
                    81:9b:fb:42:04:7c:6f:3d:e2:38:6c:0e:e4:2e:8e:
                    2a:18:6d:30:cd:67:2a:23:6b:37:cf:05:9f:cc:b7:
                    59:58:7f:ba:c4:0a:3f:8c:a4:ad:cb:98:9c:c0:f2:
                    8f:69:67:0f:c1:4e:33:cf:fc:85:5e:bb:5e:cf:93:
                    b0:cf:d9:f4:52:79:87:b1:f8:4d:15:68:65:d5:b7:
                    19:08:63:7f:5e:b1:34:ad:05:8f:5a:f0:e4:e1:8f:
                    25:f2:5c:5c:61:95:b0:56:2d:31:2b:08:65:79:e5:
                    b1:3b:9d:3e:b9:52:4b:ac:5d:c4:58:66:85:8d:81:
                    b3:04:28:f4:3f:2f:ac:92:01:62:d5:fd:8e:0b:da:
                    02:0c:7a:c7:6e:09:1c:ac:1c:b2:4c:d7:54:b8:26:
                    33:b2:5f:14:f3:b1:f9:3d:62:4d:40:99:6b:b6:e7:
                    89:58:97:d6:d4:4d:ea:4b:68:52:f3:3c:a8:b1:35:
                    88:db
                Exponent: 65537 (0x10001)
        X509v3 extensions:
            X509v3 Subject Key Identifier: 
                A1:DF:33:C3:CF:3E:53:41:A7:68:44:CC:AA:19:E1:84:C9:0D:BC:C6
            X509v3 Authority Key Identifier: 
                keyid:B4:11:33:F1:D7:E2:5E:F7:53:9E:20:22:10:4F:86:06:BF:1F:C9:5E
                DirName:/C=AU/O=Dodgy Brothers/CN=Dodgy CA
                serial:22:B5:12:36:9F:B5:F9:00:C2:CF:9D:91:6F:B4:86:5D:C7:6B:2C:FA
            X509v3 Basic Constraints: critical
                CA:TRUE, pathlen:1
            X509v3 Key Usage: 
                Certificate Sign, CRL Sign
            X509v3 Issuer Alternative Name: 
                <EMPTY>

    Signature Algorithm: sha1WithRSAEncryption
    Signature Value:
        3a:f3:ca:a4:9c:cf:3c:92:82:bc:42:cb:d7:42:cf:45:42:6d:
        3a:f2:b6:76:b8:ae:d3:09:38:9a:4c:9c:bb:7a:f1:31:0e:a1:
        7f:ac:d4:0a:05:7f:4e:e7:4f:3a:06:8f:b3:46:8d:f5:3a:63:
        ef:62:87:60:fd:aa:9f:d7:d7:4e:a4:c4:22:28:a4:73:eb:77:
        fe:a0:6e:f8:a4:77:46:b0:b9:ed:4b:02:d0:0b:4f:6b:7a:4a:
        72:8e:17:c3:35:1f:d2:ae:c3:bb:e6:a3:98:f8:14:0c:b2:a0:
        2c:32:e9:ab:5a:cf:8c:b0:96:2d:2c:f2:e6:80:78:2d:f0:33:
        4a:de:ce:eb:36:8a:cb:96:dd:75:24:96:43:a2:ca:91:07:a2:
        53:25:12:d1:3b:12:17:9a:5e:3e:a5:bc:b9:b6:92:3e:b0:ac:
        5b:3c:f1:83:94:59:88:5d:9c:8f:7a:e9:83:f1:ee:ec:29:29:
        1e:05:e1:f1:ce:b6:b5:81:91:b5:39:54:b6:93:fe:07:81:34:
        e8:90:d6:65:a7:cd:da:1f:46:93:e9:9c:8b:a4:dc:68:1a:d9:
        02:8f:a4:27:28:3a:40:e2:75:f1:69:f7:49:55:6d:5d:d1:b7:
        24:67:08:a7:44:4b:0c:c5:6f:14:f6:c8:68:cd:aa:e2:57:9d:
        8e:9c:f5:84
-----BEGIN CERTIFICATE-----
MIID6zCCAtOgAwIBAgIUd3MhgdAdCZqejseBeouM2aK7KdgwDQYJKoZIhvcNAQEF
BQAwOTELMAkGA1UEBhMCQVUxFzAVBgNVBAoMDkRvZGd5IEJyb3RoZXJzMREwDwYD
VQQDDAhEb2RneSBDQTAeFw0yNTAxMDIwNjQ0NTVaFw0yNjAxMDIwNjQ0NTVaMF8x
CzAJBgNVBAYTAkFVMRcwFQYDVQQKDA5Eb2RneSBCcm90aGVyczESMBAGA1UEAwwJ
QnJvdGhlciAxMSMwIQYDVQQDDBpuZXh0dXBkYXRlX2dlbmVyYWxpemVkdGltZTCC
ASIwDQYJKoZIhvcNAQEBBQADggEPADCCAQoCggEBAL6VhvpxTGrqUZhQS5mhLGYV
82Dz4f9p+85IAR3+4Sw4sOO9j0tIp346xnPjq7/h2m6W9f7D5LSorbxWNNSWJXQn
wxDbNRAlHI5LgZv7QgR8bz3iOGwO5C6OKhhtMM1nKiNrN88Fn8y3WVh/usQKP4yk
rcuYnMDyj2lnD8FOM8/8hV67Xs+TsM/Z9FJ5h7H4TRVoZdW3GQhjf16xNK0Fj1rw
5OGPJfJcXGGVsFYtMSsIZXnlsTudPrlSS6xdxFhmhY2BswQo9D8vrJIBYtX9jgva
Agx6x24JHKwcskzXVLgmM7JfFPOx+T1iTUCZa7bniViX1tRN6ktoUvM8qLE1iNsC
AwEAAaOBxDCBwTAdBgNVHQ4EFgQUod8zw88+U0GnaETMqhnhhMkNvMYwdAYDVR0j
BG0wa4AUtBEz8dfiXvdTniAiEE+GBr8fyV6hPaQ7MDkxCzAJBgNVBAYTAkFVMRcw
FQYDVQQKDA5Eb2RneSBCcm90aGVyczERMA8GA1UEAwwIRG9kZ3kgQ0GCFCK1Ejaf
tfkAws+dkW+0hl3Hayz6MBIGA1UdEwEB/wQIMAYBAf8CAQEwCwYDVR0PBAQDAgEG
MAkGA1UdEgQCMAAwDQYJKoZIhvcNAQEFBQADggEBADrzyqSczzySgrxCy9dCz0VC
bTrytna4rtMJOJpMnLt68TEOoX+s1AoFf07nTzoGj7NGjfU6Y+9ih2D9qp/X106k
xCIopHPrd/6gbvikd0awue1LAtALT2t6SnKOF8M1H9Kuw7vmo5j4FAyyoCwy6ata
z4ywli0s8uaAeC3wM0rezus2isuW3XUklkOiypEHolMlEtE7EheaXj6lvLm2kj6w
rFs88YOUWYhdnI966YPx7uwpKR4F4fHOtrWBkbU5VLaT/geBNOiQ1mWnzdofRpPp
nIuk3Gga2QKPpCcoOkDidfFp90lVbV3RtyRnCKdESwzFbxT2yGjNquJXnY6c9YQ=
-----END CERTIFICATE-----
