Certificate:
    Data:
        Version: 3 (0x2)
        Serial Number:
            77:73:21:81:d0:1d:09:9a:9e:8e:c7:81:7a:8b:8c:d9:a2:bb:29:d9
        Signature Algorithm: sha1WithRSAEncryption
        Issuer: C=AU, O=Dodgy Brothers, CN=Dodgy CA
        Validity
            Not Before: Jan  2 06:44:55 2025 GMT
            Not After : Jan  2 06:44:55 2026 GMT
        Subject: C=AU, O=Dodgy Brothers, CN=Brother 1, CN=both_utctime
        Subject Public Key Info:
            Public Key Algorithm: rsaEncryption
                Public-Key: (2048 bit)
                Modulus:
                    00:be:95:86:fa:71:4c:6a:ea:51:98:50:4b:99:a1:
                    2c:66:15:f3:60:f3:e1:ff:69:fb:ce:48:01:1d:fe:
                    e1:2c:38:b0:e3:bd:8f:4b:48:a7:7e:3a:c6:73:e3:
                    ab:bf:e1:da:6e:96:f5:fe:c3:e4:b4:a8:ad:bc:56:
                    34:d4:96:25:74:27:c3:10:db:35:10:25:1c:8e:4b:
                    81:9b:fb:42:04:7c:6f:3d:e2:38:6c:0e:e4:2e:8e:
                    2a:18:6d:30:cd:67:2a:23:6b:37:cf:05:9f:cc:b7:
                    59:58:7f:ba:c4:0a:3f:8c:a4:ad:cb:98:9c:c0:f2:
                    8f:69:67:0f:c1:4e:33:cf:fc:85:5e:bb:5e:cf:93:
                    b0:cf:d9:f4:52:79:87:b1:f8:4d:15:68:65:d5:b7:
                    19:08:63:7f:5e:b1:34:ad:05:8f:5a:f0:e4:e1:8f:
                    25:f2:5c:5c:61:95:b0:56:2d:31:2b:08:65:79:e5:
                    b1:3b:9d:3e:b9:52:4b:ac:5d:c4:58:66:85:8d:81:
                    b3:04:28:f4:3f:2f:ac:92:01:62:d5:fd:8e:0b:da:
                    02:0c:7a:c7:6e:09:1c:ac:1c:b2:4c:d7:54:b8:26:
                    33:b2:5f:14:f3:b1:f9:3d:62:4d:40:99:6b:b6:e7:
                    89:58:97:d6:d4:4d:ea:4b:68:52:f3:3c:a8:b1:35:
                    88:db
                Exponent: 65537 (0x10001)
        X509v3 extensions:
            X509v3 Subject Key Identifier: 
                A1:DF:33:C3:CF:3E:53:41:A7:68:44:CC:AA:19:E1:84:C9:0D:BC:C6
            X509v3 Authority Key Identifier: 
                keyid:B4:11:33:F1:D7:E2:5E:F7:53:9E:20:22:10:4F:86:06:BF:1F:C9:5E
                DirName:/C=AU/O=Dodgy Brothers/CN=Dodgy CA
                serial:22:B5:12:36:9F:B5:F9:00:C2:CF:9D:91:6F:B4:86:5D:C7:6B:2C:FA
            X509v3 Basic Constraints: critical
                CA:TRUE, pathlen:1
            X509v3 Key Usage: 
                Certificate Sign, CRL Sign
            X509v3 Issuer Alternative Name: 
                <EMPTY>

    Signature Algorithm: sha1WithRSAEncryption
    Signature Value:
        5d:62:b1:7a:5e:99:05:a0:f8:74:34:4b:37:44:ac:85:b6:22:
        c7:69:74:8f:86:54:2e:8f:32:08:cf:60:4c:68:06:d4:e1:67:
        33:af:d1:b7:d5:44:66:6d:3a:08:78:2c:63:08:a5:d2:a2:cb:
        56:54:e9:ac:86:a9:62:84:77:6e:0d:7a:0d:40:c8:49:b7:d0:
        5f:69:80:d6:5f:52:00:79:fa:08:3e:08:69:4c:e2:f3:e4:c5:
        c3:3d:15:59:41:1a:57:97:c3:c9:fa:34:87:60:2a:8e:05:28:
        86:29:f1:a5:0b:3d:69:23:3a:c7:3e:1e:c3:be:dc:be:73:a8:
        0d:e6:26:fe:ff:10:03:e9:1d:15:84:ad:0c:a7:a7:a8:ac:c2:
        68:95:bc:bf:6f:e8:7a:b2:94:2f:4c:7a:5d:f9:c5:50:c0:08:
        66:12:ae:21:b2:2d:49:21:48:81:bf:df:e6:b7:65:14:db:18:
        31:b2:51:00:7a:af:41:eb:2f:cc:5e:0a:90:0d:04:47:a5:02:
        57:9c:a7:97:24:40:70:c6:e2:17:ac:ce:83:66:e1:87:db:28:
        96:d6:b4:23:a4:a5:f8:50:c8:78:d8:c4:5e:94:18:37:2f:b3:
        16:2c:69:2b:2a:5c:d8:f9:c2:ad:4d:90:94:5b:95:ab:62:c4:
        e8:65:c2:40
-----BEGIN CERTIFICATE-----
MIID3TCCAsWgAwIBAgIUd3MhgdAdCZqejseBeouM2aK7KdkwDQYJKoZIhvcNAQEF
BQAwOTELMAkGA1UEBhMCQVUxFzAVBgNVBAoMDkRvZGd5IEJyb3RoZXJzMREwDwYD
VQQDDAhEb2RneSBDQTAeFw0yNTAxMDIwNjQ0NTVaFw0yNjAxMDIwNjQ0NTVaMFEx
CzAJBgNVBAYTAkFVMRcwFQYDVQQKDA5Eb2RneSBCcm90aGVyczESMBAGA1UEAwwJ
QnJvdGhlciAxMRUwEwYDVQQDDAxib3RoX3V0Y3RpbWUwggEiMA0GCSqGSIb3DQEB
AQUAA4IBDwAwggEKAoIBAQC+lYb6cUxq6lGYUEuZoSxmFfNg8+H/afvOSAEd/uEs
OLDjvY9LSKd+OsZz46u/4dpulvX+w+S0qK28VjTUliV0J8MQ2zUQJRyOS4Gb+0IE
fG894jhsDuQujioYbTDNZyojazfPBZ/Mt1lYf7rECj+MpK3LmJzA8o9pZw/BTjPP
/IVeu17Pk7DP2fRSeYex+E0VaGXVtxkIY39esTStBY9a8OThjyXyXFxhlbBWLTEr
CGV55bE7nT65UkusXcRYZoWNgbMEKPQ/L6ySAWLV/Y4L2gIMesduCRysHLJM11S4
JjOyXxTzsfk9Yk1AmWu254lYl9bUTepLaFLzPKixNYjbAgMBAAGjgcQwgcEwHQYD
VR0OBBYEFKHfM8PPPlNBp2hEzKoZ4YTJDbzGMHQGA1UdIwRtMGuAFLQRM/HX4l73
U54gIhBPhga/H8leoT2kOzA5MQswCQYDVQQGEwJBVTEXMBUGA1UECgwORG9kZ3kg
QnJvdGhlcnMxETAPBgNVBAMMCERvZGd5IENBghQitRI2n7X5AMLPnZFvtIZdx2ss
+jASBgNVHRMBAf8ECDAGAQH/AgEBMAsGA1UdDwQEAwIBBjAJBgNVHRIEAjAAMA0G
CSqGSIb3DQEBBQUAA4IBAQBdYrF6XpkFoPh0NEs3RKyFtiLHaXSPhlQujzIIz2BM
aAbU4Wczr9G31URmbToIeCxjCKXSostWVOmshqlihHduDXoNQMhJt9BfaYDWX1IA
efoIPghpTOLz5MXDPRVZQRpXl8PJ+jSHYCqOBSiGKfGlCz1pIzrHPh7Dvty+c6gN
5ib+/xAD6R0VhK0Mp6eorMJolby/b+h6spQvTHpd+cVQwAhmEq4hsi1JIUiBv9/m
t2UU2xgxslEAeq9B6y/MXgqQDQRHpQJXnKeXJEBwxuIXrM6DZuGH2yiW1rQjpKX4
UMh42MRelBg3L7MWLGkrKlzY+cKtTZCUW5WrYsToZcJA
-----END CERTIFICATE-----
