Certificate:
    Data:
        Version: 3 (0x2)
        Serial Number:
            77:73:21:81:d0:1d:09:9a:9e:8e:c7:81:7a:8b:8c:d9:a2:bb:29:da
        Signature Algorithm: sha1WithRSAEncryption
        Issuer: C=AU, O=Dodgy Brothers, CN=Dodgy CA
        Validity
            Not Before: Jan  2 06:44:55 2025 GMT
            Not After : Jan  2 06:44:55 2026 GMT
        Subject: C=AU, O=Dodgy Brothers, CN=Brother 1, CN=both_generalizedtime
        Subject Public Key Info:
            Public Key Algorithm: rsaEncryption
                Public-Key: (2048 bit)
                Modulus:
                    00:be:95:86:fa:71:4c:6a:ea:51:98:50:4b:99:a1:
                    2c:66:15:f3:60:f3:e1:ff:69:fb:ce:48:01:1d:fe:
                    e1:2c:38:b0:e3:bd:8f:4b:48:a7:7e:3a:c6:73:e3:
                    ab:bf:e1:da:6e:96:f5:fe:c3:e4:b4:a8:ad:bc:56:
                    34:d4:96:25:74:27:c3:10:db:35:10:25:1c:8e:4b:
                    81:9b:fb:42:04:7c:6f:3d:e2:38:6c:0e:e4:2e:8e:
                    2a:18:6d:30:cd:67:2a:23:6b:37:cf:05:9f:cc:b7:
                    59:58:7f:ba:c4:0a:3f:8c:a4:ad:cb:98:9c:c0:f2:
                    8f:69:67:0f:c1:4e:33:cf:fc:85:5e:bb:5e:cf:93:
                    b0:cf:d9:f4:52:79:87:b1:f8:4d:15:68:65:d5:b7:
                    19:08:63:7f:5e:b1:34:ad:05:8f:5a:f0:e4:e1:8f:
                    25:f2:5c:5c:61:95:b0:56:2d:31:2b:08:65:79:e5:
                    b1:3b:9d:3e:b9:52:4b:ac:5d:c4:58:66:85:8d:81:
                    b3:04:28:f4:3f:2f:ac:92:01:62:d5:fd:8e:0b:da:
                    02:0c:7a:c7:6e:09:1c:ac:1c:b2:4c:d7:54:b8:26:
                    33:b2:5f:14:f3:b1:f9:3d:62:4d:40:99:6b:b6:e7:
                    89:58:97:d6:d4:4d:ea:4b:68:52:f3:3c:a8:b1:35:
                    88:db
                Exponent: 65537 (0x10001)
        X509v3 extensions:
            X509v3 Subject Key Identifier: 
                A1:DF:33:C3:CF:3E:53:41:A7:68:44:CC:AA:19:E1:84:C9:0D:BC:C6
            X509v3 Authority Key Identifier: 
                keyid:B4:11:33:F1:D7:E2:5E:F7:53:9E:20:22:10:4F:86:06:BF:1F:C9:5E
                DirName:/C=AU/O=Dodgy Brothers/CN=Dodgy CA
                serial:22:B5:12:36:9F:B5:F9:00:C2:CF:9D:91:6F:B4:86:5D:C7:6B:2C:FA
            X509v3 Basic Constraints: critical
                CA:TRUE, pathlen:1
            X509v3 Key Usage: 
                Certificate Sign, CRL Sign
            X509v3 Issuer Alternative Name: 
                <EMPTY>

    Signature Algorithm: sha1WithRSAEncryption
    Signature Value:
        88:28:85:d0:3d:f8:44:eb:24:e6:07:d8:a4:cd:f0:96:87:9e:
        41:ea:4e:0d:c4:00:1a:93:53:5e:79:75:1d:da:ec:14:52:02:
        46:8e:ab:ff:51:b9:22:4b:68:10:d4:19:f3:fe:d7:61:53:0b:
        d8:91:45:4f:ef:4f:c1:3e:b6:e7:92:c1:36:17:13:41:82:b9:
        c2:2b:b3:2d:ec:99:be:05:70:b2:0d:6c:5c:a0:95:8b:ab:ed:
        2c:7f:a8:66:7d:5d:a2:fe:3c:75:e5:48:ef:4f:12:f6:9b:89:
        07:bf:06:c2:0a:b1:1c:81:b6:75:cf:41:b7:71:0b:e2:1f:3c:
        9e:81:e9:3f:b5:17:71:9b:98:90:2e:83:cc:6c:b9:4a:82:3c:
        82:0e:8c:c6:01:e9:15:f5:c5:f1:4e:5b:27:99:01:a9:4b:ce:
        21:76:5a:1f:b4:57:79:98:1e:39:51:7e:25:df:31:d3:25:90:
        75:a5:78:21:a4:bd:dc:2f:1c:b8:25:0c:7f:fa:01:82:cd:6a:
        a8:5d:44:d2:d3:da:aa:21:3a:63:e2:5d:fd:f4:db:d3:c1:74:
        09:52:fc:13:bb:7e:f1:70:c4:57:a4:73:3e:02:8d:e6:e7:40:
        f5:72:cc:f0:5f:d2:6c:77:ee:9a:59:de:f3:1f:12:8d:2e:0e:
        46:61:e8:b6
-----BEGIN CERTIFICATE-----
MIID5TCCAs2gAwIBAgIUd3MhgdAdCZqejseBeouM2aK7KdowDQYJKoZIhvcNAQEF
BQAwOTELMAkGA1UEBhMCQVUxFzAVBgNVBAoMDkRvZGd5IEJyb3RoZXJzMREwDwYD
VQQDDAhEb2RneSBDQTAeFw0yNTAxMDIwNjQ0NTVaFw0yNjAxMDIwNjQ0NTVaMFkx
CzAJBgNVBAYTAkFVMRcwFQYDVQQKDA5Eb2RneSBCcm90aGVyczESMBAGA1UEAwwJ
QnJvdGhlciAxMR0wGwYDVQQDDBRib3RoX2dlbmVyYWxpemVkdGltZTCCASIwDQYJ
KoZIhvcNAQEBBQADggEPADCCAQoCggEBAL6VhvpxTGrqUZhQS5mhLGYV82Dz4f9p
+85IAR3+4Sw4sOO9j0tIp346xnPjq7/h2m6W9f7D5LSorbxWNNSWJXQnwxDbNRAl
HI5LgZv7QgR8bz3iOGwO5C6OKhhtMM1nKiNrN88Fn8y3WVh/usQKP4ykrcuYnMDy
j2lnD8FOM8/8hV67Xs+TsM/Z9FJ5h7H4TRVoZdW3GQhjf16xNK0Fj1rw5OGPJfJc
XGGVsFYtMSsIZXnlsTudPrlSS6xdxFhmhY2BswQo9D8vrJIBYtX9jgvaAgx6x24J
HKwcskzXVLgmM7JfFPOx+T1iTUCZa7bniViX1tRN6ktoUvM8qLE1iNsCAwEAAaOB
xDCBwTAdBgNVHQ4EFgQUod8zw88+U0GnaETMqhnhhMkNvMYwdAYDVR0jBG0wa4AU
tBEz8dfiXvdTniAiEE+GBr8fyV6hPaQ7MDkxCzAJBgNVBAYTAkFVMRcwFQYDVQQK
DA5Eb2RneSBCcm90aGVyczERMA8GA1UEAwwIRG9kZ3kgQ0GCFCK1EjaftfkAws+d
kW+0hl3Hayz6MBIGA1UdEwEB/wQIMAYBAf8CAQEwCwYDVR0PBAQDAgEGMAkGA1Ud
EgQCMAAwDQYJKoZIhvcNAQEFBQADggEBAIgohdA9+ETrJOYH2KTN8JaHnkHqTg3E
ABqTU155dR3a7BRSAkaOq/9RuSJLaBDUGfP+12FTC9iRRU/vT8E+tueSwTYXE0GC
ucIrsy3smb4FcLINbFyglYur7Sx/qGZ9XaL+PHXlSO9PEvabiQe/BsIKsRyBtnXP
QbdxC+IfPJ6B6T+1F3GbmJAug8xsuUqCPIIOjMYB6RX1xfFOWyeZAalLziF2Wh+0
V3mYHjlRfiXfMdMlkHWleCGkvdwvHLglDH/6AYLNaqhdRNLT2qohOmPiXf3029PB
dAlS/BO7fvFwxFekcz4CjebnQPVyzPBf0mx37ppZ3vMfEo0uDkZh6LY=
-----END CERTIFICATE-----
