Certificate:
    Data:
        Version: 3 (0x2)
        Serial Number:
            77:73:21:81:d0:1d:09:9a:9e:8e:c7:81:7a:8b:8c:d9:a2:bb:29:d3
        Signature Algorithm: sha1WithRSAEncryption
        Issuer: C=AU, O=Dodgy Brothers, CN=Dodgy CA
        Validity
            Not Before: Jan  2 06:44:53 2025 GMT
            Not After : Jan  2 06:44:53 2026 GMT
        Subject: C=AU, O=Dodgy Brothers, CN=Brother 1, CN=lastupdate_invalid
        Subject Public Key Info:
            Public Key Algorithm: rsaEncryption
                Public-Key: (2048 bit)
                Modulus:
                    00:be:95:86:fa:71:4c:6a:ea:51:98:50:4b:99:a1:
                    2c:66:15:f3:60:f3:e1:ff:69:fb:ce:48:01:1d:fe:
                    e1:2c:38:b0:e3:bd:8f:4b:48:a7:7e:3a:c6:73:e3:
                    ab:bf:e1:da:6e:96:f5:fe:c3:e4:b4:a8:ad:bc:56:
                    34:d4:96:25:74:27:c3:10:db:35:10:25:1c:8e:4b:
                    81:9b:fb:42:04:7c:6f:3d:e2:38:6c:0e:e4:2e:8e:
                    2a:18:6d:30:cd:67:2a:23:6b:37:cf:05:9f:cc:b7:
                    59:58:7f:ba:c4:0a:3f:8c:a4:ad:cb:98:9c:c0:f2:
                    8f:69:67:0f:c1:4e:33:cf:fc:85:5e:bb:5e:cf:93:
                    b0:cf:d9:f4:52:79:87:b1:f8:4d:15:68:65:d5:b7:
                    19:08:63:7f:5e:b1:34:ad:05:8f:5a:f0:e4:e1:8f:
                    25:f2:5c:5c:61:95:b0:56:2d:31:2b:08:65:79:e5:
                    b1:3b:9d:3e:b9:52:4b:ac:5d:c4:58:66:85:8d:81:
                    b3:04:28:f4:3f:2f:ac:92:01:62:d5:fd:8e:0b:da:
                    02:0c:7a:c7:6e:09:1c:ac:1c:b2:4c:d7:54:b8:26:
                    33:b2:5f:14:f3:b1:f9:3d:62:4d:40:99:6b:b6:e7:
                    89:58:97:d6:d4:4d:ea:4b:68:52:f3:3c:a8:b1:35:
                    88:db
                Exponent: 65537 (0x10001)
        X509v3 extensions:
            X509v3 Subject Key Identifier: 
                A1:DF:33:C3:CF:3E:53:41:A7:68:44:CC:AA:19:E1:84:C9:0D:BC:C6
            X509v3 Authority Key Identifier: 
                keyid:B4:11:33:F1:D7:E2:5E:F7:53:9E:20:22:10:4F:86:06:BF:1F:C9:5E
                DirName:/C=AU/O=Dodgy Brothers/CN=Dodgy CA
                serial:22:B5:12:36:9F:B5:F9:00:C2:CF:9D:91:6F:B4:86:5D:C7:6B:2C:FA
            X509v3 Basic Constraints: critical
                CA:TRUE, pathlen:1
            X509v3 Key Usage: 
                Certificate Sign, CRL Sign
            X509v3 Issuer Alternative Name: 
                <EMPTY>

    Signature Algorithm: sha1WithRSAEncryption
    Signature Value:
        3a:a1:09:6e:d9:52:82:f1:3e:4c:db:bc:0f:6b:5f:95:b3:d5:
        36:37:40:2c:cc:a2:c4:bc:2e:d6:b6:7d:06:1d:42:96:9f:07:
        d1:98:1e:f6:7b:79:26:2a:48:f4:3e:a0:ed:27:f3:49:93:ab:
        53:a7:03:5d:a0:96:3d:36:c3:8f:0d:dd:f0:dd:40:93:65:78:
        51:ad:17:5f:be:5d:d9:5f:68:06:61:61:05:c1:01:a6:a1:a0:
        74:3c:74:85:4c:dc:e5:f1:dd:94:f5:8d:28:ce:83:0c:e2:32:
        46:92:47:db:1d:cc:8a:81:dd:38:40:7d:8d:6a:63:12:18:0b:
        47:21:4d:3e:29:f0:ce:3a:dc:20:40:fd:4a:f4:c5:e1:dc:e7:
        09:11:30:be:04:bb:50:67:d4:54:7c:5f:da:b2:90:fe:09:48:
        94:c5:c4:b4:e6:f2:75:0f:b0:22:c5:c7:e4:fc:a8:4e:e6:f5:
        15:a5:d7:26:d5:d8:33:6c:4b:0d:bd:e8:64:b8:cd:2b:09:42:
        4e:02:bc:3d:60:04:25:3e:93:e2:33:48:99:ff:fc:7c:86:ba:
        93:ce:2b:3e:15:a4:d6:18:66:b2:f6:bd:0e:72:7a:ed:f1:3b:
        d1:19:d5:61:18:e2:14:67:e4:23:ea:f2:91:4c:3f:54:59:95:
        7b:39:17:7c
-----BEGIN CERTIFICATE-----
MIID4zCCAsugAwIBAgIUd3MhgdAdCZqejseBeouM2aK7KdMwDQYJKoZIhvcNAQEF
BQAwOTELMAkGA1UEBhMCQVUxFzAVBgNVBAoMDkRvZGd5IEJyb3RoZXJzMREwDwYD
VQQDDAhEb2RneSBDQTAeFw0yNTAxMDIwNjQ0NTNaFw0yNjAxMDIwNjQ0NTNaMFcx
CzAJBgNVBAYTAkFVMRcwFQYDVQQKDA5Eb2RneSBCcm90aGVyczESMBAGA1UEAwwJ
QnJvdGhlciAxMRswGQYDVQQDDBJsYXN0dXBkYXRlX2ludmFsaWQwggEiMA0GCSqG
SIb3DQEBAQUAA4IBDwAwggEKAoIBAQC+lYb6cUxq6lGYUEuZoSxmFfNg8+H/afvO
SAEd/uEsOLDjvY9LSKd+OsZz46u/4dpulvX+w+S0qK28VjTUliV0J8MQ2zUQJRyO
S4Gb+0IEfG894jhsDuQujioYbTDNZyojazfPBZ/Mt1lYf7rECj+MpK3LmJzA8o9p
Zw/BTjPP/IVeu17Pk7DP2fRSeYex+E0VaGXVtxkIY39esTStBY9a8OThjyXyXFxh
lbBWLTErCGV55bE7nT65UkusXcRYZoWNgbMEKPQ/L6ySAWLV/Y4L2gIMesduCRys
HLJM11S4JjOyXxTzsfk9Yk1AmWu254lYl9bUTepLaFLzPKixNYjbAgMBAAGjgcQw
gcEwHQYDVR0OBBYEFKHfM8PPPlNBp2hEzKoZ4YTJDbzGMHQGA1UdIwRtMGuAFLQR
M/HX4l73U54gIhBPhga/H8leoT2kOzA5MQswCQYDVQQGEwJBVTEXMBUGA1UECgwO
RG9kZ3kgQnJvdGhlcnMxETAPBgNVBAMMCERvZGd5IENBghQitRI2n7X5AMLPnZFv
tIZdx2ss+jASBgNVHRMBAf8ECDAGAQH/AgEBMAsGA1UdDwQEAwIBBjAJBgNVHRIE
AjAAMA0GCSqGSIb3DQEBBQUAA4IBAQA6oQlu2VKC8T5M27wPa1+Vs9U2N0AszKLE
vC7Wtn0GHUKWnwfRmB72e3kmKkj0PqDtJ/NJk6tTpwNdoJY9NsOPDd3w3UCTZXhR
rRdfvl3ZX2gGYWEFwQGmoaB0PHSFTNzl8d2U9Y0ozoMM4jJGkkfbHcyKgd04QH2N
amMSGAtHIU0+KfDOOtwgQP1K9MXh3OcJETC+BLtQZ9RUfF/aspD+CUiUxcS05vJ1
D7Aixcfk/KhO5vUVpdcm1dgzbEsNvehkuM0rCUJOArw9YAQlPpPiM0iZ//x8hrqT
zis+FaTWGGay9r0Ocnrt8TvRGdVhGOIUZ+Qj6vKRTD9UWZV7ORd8
-----END CERTIFICATE-----
