Certificate:
    Data:
        Version: 3 (0x2)
        Serial Number:
            77:73:21:81:d0:1d:09:9a:9e:8e:c7:81:7a:8b:8c:d9:a2:bb:29:d5
        Signature Algorithm: sha1WithRSAEncryption
        Issuer: C=AU, O=Dodgy Brothers, CN=Dodgy CA
        Validity
            Not Before: Jan  2 06:44:53 2025 GMT
            Not After : Jan  2 06:44:53 2026 GMT
        Subject: C=AU, O=Dodgy Brothers, CN=Brother 1, CN=lastupdate_generalizedtime
        Subject Public Key Info:
            Public Key Algorithm: rsaEncryption
                Public-Key: (2048 bit)
                Modulus:
                    00:be:95:86:fa:71:4c:6a:ea:51:98:50:4b:99:a1:
                    2c:66:15:f3:60:f3:e1:ff:69:fb:ce:48:01:1d:fe:
                    e1:2c:38:b0:e3:bd:8f:4b:48:a7:7e:3a:c6:73:e3:
                    ab:bf:e1:da:6e:96:f5:fe:c3:e4:b4:a8:ad:bc:56:
                    34:d4:96:25:74:27:c3:10:db:35:10:25:1c:8e:4b:
                    81:9b:fb:42:04:7c:6f:3d:e2:38:6c:0e:e4:2e:8e:
                    2a:18:6d:30:cd:67:2a:23:6b:37:cf:05:9f:cc:b7:
                    59:58:7f:ba:c4:0a:3f:8c:a4:ad:cb:98:9c:c0:f2:
                    8f:69:67:0f:c1:4e:33:cf:fc:85:5e:bb:5e:cf:93:
                    b0:cf:d9:f4:52:79:87:b1:f8:4d:15:68:65:d5:b7:
                    19:08:63:7f:5e:b1:34:ad:05:8f:5a:f0:e4:e1:8f:
                    25:f2:5c:5c:61:95:b0:56:2d:31:2b:08:65:79:e5:
                    b1:3b:9d:3e:b9:52:4b:ac:5d:c4:58:66:85:8d:81:
                    b3:04:28:f4:3f:2f:ac:92:01:62:d5:fd:8e:0b:da:
                    02:0c:7a:c7:6e:09:1c:ac:1c:b2:4c:d7:54:b8:26:
                    33:b2:5f:14:f3:b1:f9:3d:62:4d:40:99:6b:b6:e7:
                    89:58:97:d6:d4:4d:ea:4b:68:52:f3:3c:a8:b1:35:
                    88:db
                Exponent: 65537 (0x10001)
        X509v3 extensions:
            X509v3 Subject Key Identifier: 
                A1:DF:33:C3:CF:3E:53:41:A7:68:44:CC:AA:19:E1:84:C9:0D:BC:C6
            X509v3 Authority Key Identifier: 
                keyid:B4:11:33:F1:D7:E2:5E:F7:53:9E:20:22:10:4F:86:06:BF:1F:C9:5E
                DirName:/C=AU/O=Dodgy Brothers/CN=Dodgy CA
                serial:22:B5:12:36:9F:B5:F9:00:C2:CF:9D:91:6F:B4:86:5D:C7:6B:2C:FA
            X509v3 Basic Constraints: critical
                CA:TRUE, pathlen:1
            X509v3 Key Usage: 
                Certificate Sign, CRL Sign
            X509v3 Issuer Alternative Name: 
                <EMPTY>

    Signature Algorithm: sha1WithRSAEncryption
    Signature Value:
        16:05:bf:4a:47:38:a1:fb:72:a5:72:13:96:08:d1:95:71:c3:
        9b:e0:8f:fe:fe:09:03:9a:1a:c7:d1:a0:fd:e0:01:21:83:8c:
        2e:cd:b8:5c:3e:51:47:45:97:a1:d3:26:4f:c3:0b:96:c0:03:
        a2:f8:0c:9b:ad:a0:a1:64:6e:c3:29:cf:d5:e9:6e:bc:d2:81:
        ca:c8:e9:d8:f1:33:eb:bf:82:e4:a0:61:7a:02:1a:06:bf:d1:
        60:6c:58:5f:cd:7b:4a:26:86:83:fa:2b:e2:99:b8:4d:d4:7e:
        85:e9:b0:58:70:4f:72:a5:5e:53:50:7f:05:0d:7a:d4:30:37:
        83:58:b6:98:8a:eb:da:a1:2d:fc:23:8f:57:bf:e4:76:b3:a4:
        41:d0:b6:3e:71:3c:d0:aa:50:db:79:5d:d8:a9:c8:97:ae:74:
        45:bc:fd:1d:51:82:e5:8e:67:8b:15:ca:62:4c:6a:e1:3c:a3:
        29:2f:b8:46:97:99:eb:cc:40:74:9b:c7:16:cc:51:1d:d1:fd:
        cc:2d:34:a9:fa:4f:d4:02:40:c6:c8:d2:89:89:2b:df:20:e3:
        d9:85:1c:6a:66:87:40:1e:a0:62:44:f2:08:c5:59:c0:bd:c0:
        f9:a8:83:9a:1d:28:7d:63:0a:c3:19:64:0b:bc:fe:5c:9e:37:
        c9:e4:79:5a
-----BEGIN CERTIFICATE-----
MIID6zCCAtOgAwIBAgIUd3MhgdAdCZqejseBeouM2aK7KdUwDQYJKoZIhvcNAQEF
BQAwOTELMAkGA1UEBhMCQVUxFzAVBgNVBAoMDkRvZGd5IEJyb3RoZXJzMREwDwYD
VQQDDAhEb2RneSBDQTAeFw0yNTAxMDIwNjQ0NTNaFw0yNjAxMDIwNjQ0NTNaMF8x
CzAJBgNVBAYTAkFVMRcwFQYDVQQKDA5Eb2RneSBCcm90aGVyczESMBAGA1UEAwwJ
QnJvdGhlciAxMSMwIQYDVQQDDBpsYXN0dXBkYXRlX2dlbmVyYWxpemVkdGltZTCC
ASIwDQYJKoZIhvcNAQEBBQADggEPADCCAQoCggEBAL6VhvpxTGrqUZhQS5mhLGYV
82Dz4f9p+85IAR3+4Sw4sOO9j0tIp346xnPjq7/h2m6W9f7D5LSorbxWNNSWJXQn
wxDbNRAlHI5LgZv7QgR8bz3iOGwO5C6OKhhtMM1nKiNrN88Fn8y3WVh/usQKP4yk
rcuYnMDyj2lnD8FOM8/8hV67Xs+TsM/Z9FJ5h7H4TRVoZdW3GQhjf16xNK0Fj1rw
5OGPJfJcXGGVsFYtMSsIZXnlsTudPrlSS6xdxFhmhY2BswQo9D8vrJIBYtX9jgva
Agx6x24JHKwcskzXVLgmM7JfFPOx+T1iTUCZa7bniViX1tRN6ktoUvM8qLE1iNsC
AwEAAaOBxDCBwTAdBgNVHQ4EFgQUod8zw88+U0GnaETMqhnhhMkNvMYwdAYDVR0j
BG0wa4AUtBEz8dfiXvdTniAiEE+GBr8fyV6hPaQ7MDkxCzAJBgNVBAYTAkFVMRcw
FQYDVQQKDA5Eb2RneSBCcm90aGVyczERMA8GA1UEAwwIRG9kZ3kgQ0GCFCK1Ejaf
tfkAws+dkW+0hl3Hayz6MBIGA1UdEwEB/wQIMAYBAf8CAQEwCwYDVR0PBAQDAgEG
MAkGA1UdEgQCMAAwDQYJKoZIhvcNAQEFBQADggEBABYFv0pHOKH7cqVyE5YI0ZVx
w5vgj/7+CQOaGsfRoP3gASGDjC7NuFw+UUdFl6HTJk/DC5bAA6L4DJutoKFkbsMp
z9XpbrzSgcrI6djxM+u/guSgYXoCGga/0WBsWF/Ne0omhoP6K+KZuE3UfoXpsFhw
T3KlXlNQfwUNetQwN4NYtpiK69qhLfwjj1e/5HazpEHQtj5xPNCqUNt5XdipyJeu
dEW8/R1RguWOZ4sVymJMauE8oykvuEaXmevMQHSbxxbMUR3R/cwtNKn6T9QCQMbI
0omJK98g49mFHGpmh0AeoGJE8gjFWcC9wPmog5odKH1jCsMZZAu8/lyeN8nkeVo=
-----END CERTIFICATE-----
