Certificate:
    Data:
        Version: 3 (0x2)
        Serial Number:
            77:73:21:81:d0:1d:09:9a:9e:8e:c7:81:7a:8b:8c:d9:a2:bb:29:d2
        Signature Algorithm: sha1WithRSAEncryption
        Issuer: C=AU, O=Dodgy Brothers, CN=Dodgy CA
        Validity
            Not Before: Jan  2 06:44:52 2025 GMT
            Not After : Jan  2 06:44:52 2026 GMT
        Subject: C=AU, O=Dodgy Brothers, CN=Brother 1, CN=notimes
        Subject Public Key Info:
            Public Key Algorithm: rsaEncryption
                Public-Key: (2048 bit)
                Modulus:
                    00:be:95:86:fa:71:4c:6a:ea:51:98:50:4b:99:a1:
                    2c:66:15:f3:60:f3:e1:ff:69:fb:ce:48:01:1d:fe:
                    e1:2c:38:b0:e3:bd:8f:4b:48:a7:7e:3a:c6:73:e3:
                    ab:bf:e1:da:6e:96:f5:fe:c3:e4:b4:a8:ad:bc:56:
                    34:d4:96:25:74:27:c3:10:db:35:10:25:1c:8e:4b:
                    81:9b:fb:42:04:7c:6f:3d:e2:38:6c:0e:e4:2e:8e:
                    2a:18:6d:30:cd:67:2a:23:6b:37:cf:05:9f:cc:b7:
                    59:58:7f:ba:c4:0a:3f:8c:a4:ad:cb:98:9c:c0:f2:
                    8f:69:67:0f:c1:4e:33:cf:fc:85:5e:bb:5e:cf:93:
                    b0:cf:d9:f4:52:79:87:b1:f8:4d:15:68:65:d5:b7:
                    19:08:63:7f:5e:b1:34:ad:05:8f:5a:f0:e4:e1:8f:
                    25:f2:5c:5c:61:95:b0:56:2d:31:2b:08:65:79:e5:
                    b1:3b:9d:3e:b9:52:4b:ac:5d:c4:58:66:85:8d:81:
                    b3:04:28:f4:3f:2f:ac:92:01:62:d5:fd:8e:0b:da:
                    02:0c:7a:c7:6e:09:1c:ac:1c:b2:4c:d7:54:b8:26:
                    33:b2:5f:14:f3:b1:f9:3d:62:4d:40:99:6b:b6:e7:
                    89:58:97:d6:d4:4d:ea:4b:68:52:f3:3c:a8:b1:35:
                    88:db
                Exponent: 65537 (0x10001)
        X509v3 extensions:
            X509v3 Subject Key Identifier: 
                A1:DF:33:C3:CF:3E:53:41:A7:68:44:CC:AA:19:E1:84:C9:0D:BC:C6
            X509v3 Authority Key Identifier: 
                keyid:B4:11:33:F1:D7:E2:5E:F7:53:9E:20:22:10:4F:86:06:BF:1F:C9:5E
                DirName:/C=AU/O=Dodgy Brothers/CN=Dodgy CA
                serial:22:B5:12:36:9F:B5:F9:00:C2:CF:9D:91:6F:B4:86:5D:C7:6B:2C:FA
            X509v3 Basic Constraints: critical
                CA:TRUE, pathlen:1
            X509v3 Key Usage: 
                Certificate Sign, CRL Sign
            X509v3 Issuer Alternative Name: 
                <EMPTY>

    Signature Algorithm: sha1WithRSAEncryption
    Signature Value:
        17:c3:23:e5:43:27:00:78:47:07:c1:a5:75:b4:a7:79:61:89:
        01:ae:1f:52:91:f6:2f:90:ef:b6:d9:a8:61:ea:4a:bb:2f:6d:
        2e:d6:bd:8e:b2:e9:c9:ef:1c:aa:d9:de:61:37:e1:09:66:58:
        ab:f2:a2:cf:09:48:cd:af:98:a8:a7:01:9c:3f:49:2c:68:c2:
        37:22:ae:10:85:ad:26:37:26:a8:2f:71:a9:99:40:93:c8:fd:
        3f:29:7b:ae:b3:c3:a7:92:bf:c3:25:b1:1b:12:9c:d5:3d:ce:
        72:fa:af:59:a8:07:9d:b4:f7:e4:c1:07:34:dd:56:31:f8:52:
        cf:a7:3f:74:23:bb:f4:35:0d:13:11:27:1f:09:e3:91:85:d5:
        20:30:f8:cc:3c:6f:eb:00:5b:2c:c3:6a:ed:b7:4e:52:9a:c5:
        b4:48:da:9e:ac:cd:93:f4:a3:8d:bd:4d:a9:4d:05:87:1e:8f:
        e6:a7:93:d0:f5:d6:0d:09:0f:c4:6b:9c:ce:65:38:2c:0d:1c:
        2a:88:fc:7d:6e:91:68:76:c2:92:58:7e:bf:3b:77:a6:f6:bd:
        b8:7b:c3:fe:71:b6:65:27:7a:0f:27:95:e0:b3:d5:aa:eb:cd:
        2b:6f:aa:53:6f:7d:06:85:ea:10:a5:a8:f8:1d:24:89:af:9c:
        ae:54:93:a5
-----BEGIN CERTIFICATE-----
MIID2DCCAsCgAwIBAgIUd3MhgdAdCZqejseBeouM2aK7KdIwDQYJKoZIhvcNAQEF
BQAwOTELMAkGA1UEBhMCQVUxFzAVBgNVBAoMDkRvZGd5IEJyb3RoZXJzMREwDwYD
VQQDDAhEb2RneSBDQTAeFw0yNTAxMDIwNjQ0NTJaFw0yNjAxMDIwNjQ0NTJaMEwx
CzAJBgNVBAYTAkFVMRcwFQYDVQQKDA5Eb2RneSBCcm90aGVyczESMBAGA1UEAwwJ
QnJvdGhlciAxMRAwDgYDVQQDDAdub3RpbWVzMIIBIjANBgkqhkiG9w0BAQEFAAOC
AQ8AMIIBCgKCAQEAvpWG+nFMaupRmFBLmaEsZhXzYPPh/2n7zkgBHf7hLDiw472P
S0infjrGc+Orv+Habpb1/sPktKitvFY01JYldCfDENs1ECUcjkuBm/tCBHxvPeI4
bA7kLo4qGG0wzWcqI2s3zwWfzLdZWH+6xAo/jKSty5icwPKPaWcPwU4zz/yFXrte
z5Owz9n0UnmHsfhNFWhl1bcZCGN/XrE0rQWPWvDk4Y8l8lxcYZWwVi0xKwhleeWx
O50+uVJLrF3EWGaFjYGzBCj0Py+skgFi1f2OC9oCDHrHbgkcrByyTNdUuCYzsl8U
87H5PWJNQJlrtueJWJfW1E3qS2hS8zyosTWI2wIDAQABo4HEMIHBMB0GA1UdDgQW
BBSh3zPDzz5TQadoRMyqGeGEyQ28xjB0BgNVHSMEbTBrgBS0ETPx1+Je91OeICIQ
T4YGvx/JXqE9pDswOTELMAkGA1UEBhMCQVUxFzAVBgNVBAoMDkRvZGd5IEJyb3Ro
ZXJzMREwDwYDVQQDDAhEb2RneSBDQYIUIrUSNp+1+QDCz52Rb7SGXcdrLPowEgYD
VR0TAQH/BAgwBgEB/wIBATALBgNVHQ8EBAMCAQYwCQYDVR0SBAIwADANBgkqhkiG
9w0BAQUFAAOCAQEAF8Mj5UMnAHhHB8GldbSneWGJAa4fUpH2L5DvttmoYepKuy9t
Lta9jrLpye8cqtneYTfhCWZYq/KizwlIza+YqKcBnD9JLGjCNyKuEIWtJjcmqC9x
qZlAk8j9Pyl7rrPDp5K/wyWxGxKc1T3OcvqvWagHnbT35MEHNN1WMfhSz6c/dCO7
9DUNExEnHwnjkYXVIDD4zDxv6wBbLMNq7bdOUprFtEjanqzNk/Sjjb1NqU0Fhx6P
5qeT0PXWDQkPxGuczmU4LA0cKoj8fW6RaHbCklh+vzt3pva9uHvD/nG2ZSd6DyeV
4LPVquvNK2+qU299BoXqEKWo+B0kia+crlSTpQ==
-----END CERTIFICATE-----
