Certificate:
    Data:
        Version: 3 (0x2)
        Serial Number:
            77:73:21:81:d0:1d:09:9a:9e:8e:c7:81:7a:8b:8c:d9:a2:bb:29:d0
        Signature Algorithm: SM2-with-SM3
        Issuer: C=CN, ST=LN, L=Shenyang, O=Test Org, OU=Test OU, CN=Test SM2 CA
        Validity
            Not Before: Jan  2 06:44:52 2025 GMT
            Not After : Jan  2 06:44:52 2026 GMT
        Subject: C=CN, ST=Liaoning, L=Shenyang, O=Tet, OU=Tet, CN=oo/emailAddress=oo@oo.oo
        Subject Public Key Info:
            Public Key Algorithm: id-ecPublicKey
                Public-Key: (256 bit)
                pub:
                    04:d4:d8:dd:3a:99:5d:72:34:e4:b9:9a:5d:18:33:
                    72:1c:09:e1:2b:d7:01:d9:16:7b:8c:09:85:ce:de:
                    e3:80:4b:3d:38:74:a0:ad:bd:dc:ae:3c:fe:a8:66:
                    5f:ab:22:79:03:26:6e:95:0e:e0:74:04:73:6f:51:
                    f9:e6:3b:f0:e6
                ASN1 OID: SM2
        X509v3 extensions:
            X509v3 Subject Key Identifier: 
                F6:52:D4:54:D4:26:10:46:F6:AA:D3:B4:8C:E6:F7:5A:BC:B0:2A:B3
            X509v3 Authority Key Identifier: 
                keyid:C5:8D:C5:AE:FF:32:60:49:9E:52:29:49:54:E5:5C:78:FF:45:B9:74
                DirName:/C=CN/ST=LN/L=Shenyang/O=Test Org/OU=Test OU/CN=Test SM2 CA
                serial:E9:64:A4:3A:52:AE:65:5B
            X509v3 Basic Constraints: critical
                CA:TRUE, pathlen:1
            X509v3 Key Usage: 
                Certificate Sign, CRL Sign
            X509v3 Issuer Alternative Name: 
                <EMPTY>

    Signature Algorithm: SM2-with-SM3
    Signature Value:
        30:46:02:21:00:cf:7d:5d:df:3a:c9:61:63:43:eb:53:f6:2c:
        f1:8d:27:db:0f:95:e1:e2:e4:de:71:84:5f:21:60:8e:2a:8d:
        91:02:21:00:b5:e2:02:dd:0f:b6:7a:55:2b:64:e3:05:1e:f6:
        ac:43:94:d1:91:6b:a8:cd:b1:75:12:13:25:57:ba:3f:1f:3a
-----BEGIN CERTIFICATE-----
MIICzDCCAnGgAwIBAgIUd3MhgdAdCZqejseBeouM2aK7KdAwCgYIKoEcz1UBg3Uw
aDELMAkGA1UEBhMCQ04xCzAJBgNVBAgMAkxOMREwDwYDVQQHDAhTaGVueWFuZzER
MA8GA1UECgwIVGVzdCBPcmcxEDAOBgNVBAsMB1Rlc3QgT1UxFDASBgNVBAMMC1Rl
c3QgU00yIENBMB4XDTI1MDEwMjA2NDQ1MloXDTI2MDEwMjA2NDQ1MlowdTELMAkG
A1UEBhMCQ04xETAPBgNVBAgMCExpYW9uaW5nMREwDwYDVQQHDAhTaGVueWFuZzEM
MAoGA1UECgwDVGV0MQwwCgYDVQQLDANUZXQxCzAJBgNVBAMMAm9vMRcwFQYJKoZI
hvcNAQkBFghvb0Bvby5vbzBZMBMGByqGSM49AgEGCCqBHM9VAYItA0IABNTY3TqZ
XXI05LmaXRgzchwJ4SvXAdkWe4wJhc7e44BLPTh0oK293K48/qhmX6sieQMmbpUO
4HQEc29R+eY78OajgeswgegwHQYDVR0OBBYEFPZS1FTUJhBG9qrTtIzm91q8sCqz
MIGaBgNVHSMEgZIwgY+AFMWNxa7/MmBJnlIpSVTlXHj/Rbl0oWykajBoMQswCQYD
VQQGEwJDTjELMAkGA1UECAwCTE4xETAPBgNVBAcMCFNoZW55YW5nMREwDwYDVQQK
DAhUZXN0IE9yZzEQMA4GA1UECwwHVGVzdCBPVTEUMBIGA1UEAwwLVGVzdCBTTTIg
Q0GCCQDpZKQ6Uq5lWzASBgNVHRMBAf8ECDAGAQH/AgEBMAsGA1UdDwQEAwIBBjAJ
BgNVHRIEAjAAMAoGCCqBHM9VAYN1A0kAMEYCIQDPfV3fOslhY0PrU/Ys8Y0n2w+V
4eLk3nGEXyFgjiqNkQIhALXiAt0PtnpVK2TjBR72rEOU0ZFrqM2xdRITJVe6Px86
-----END CERTIFICATE-----
