Certificate:
    Data:
        Version: 3 (0x2)
        Serial Number: 1234567890 (0x499602d2)
        Signature Algorithm: sha256WithRSAEncryption
        Issuer: CN=ca.example.com
        Validity
            Not Before: Jan  2 06:37:55 2025 GMT
            Not After : Jan  2 06:37:55 2026 GMT
        Subject: CN=test.example.com
        Subject Public Key Info:
            Public Key Algorithm: rsaEncryption
                Public-Key: (2048 bit)
                Modulus:
                    00:cf:63:78:46:93:2e:05:73:63:cb:74:a1:d5:09:
                    4a:dc:34:f2:49:b2:ea:61:9e:b6:ef:2b:47:11:bc:
                    a4:a9:38:0a:0d:dc:ea:88:49:f8:79:c8:b1:9e:60:
                    0f:b0:f3:fe:98:af:e6:e2:89:64:e9:e5:c5:90:31:
                    20:b2:f7:19:13:09:7d:e4:a0:5b:9f:b3:5c:5f:c6:
                    62:f0:fe:ff:d9:f4:18:79:fb:fe:76:66:60:84:b2:
                    2d:34:9a:76:0c:43:a4:36:97:b4:b1:f0:4b:b0:13:
                    db:b4:ea:30:39:f3:1b:11:61:69:34:d6:84:72:2c:
                    eb:85:ea:2f:96:ec:86:ee:c7:db:3c:8a:29:ae:59:
                    af:60:17:0e:c7:07:a7:28:4b:e6:a0:0b:f0:ac:d0:
                    ae:24:ef:9c:4f:ad:ce:09:1b:2b:a7:d9:45:22:47:
                    1e:2f:c0:1a:e6:04:ff:30:88:16:94:b7:70:a7:90:
                    66:93:83:90:4a:4b:11:c3:38:62:bb:79:36:39:5c:
                    41:61:80:c2:6a:6c:29:85:76:52:26:29:97:ed:37:
                    d9:2b:c7:99:c8:a2:dc:98:b4:c8:27:5d:87:0e:66:
                    47:f4:00:94:ad:a7:f0:a8:fd:92:d7:7f:69:3e:fe:
                    e4:76:e1:b9:37:fe:f1:2d:74:3e:0f:46:a9:72:38:
                    18:81
                Exponent: 65537 (0x10001)
        X509v3 extensions:
            X509v3 Subject Key Identifier: 
                F2:36:83:BC:84:33:F2:43:89:FE:9A:6F:3C:28:45:05:2C:9A:18:97
            X509v3 Authority Key Identifier: 
                F2:36:83:BC:84:33:F2:43:89:FE:9A:6F:3C:28:45:05:2C:9A:18:97
            X509v3 Basic Constraints: critical
                CA:TRUE
    Signature Algorithm: sha256WithRSAEncryption
    Signature Value:
        a7:66:62:73:eb:6a:e7:fc:d0:e7:dc:57:6b:4b:bc:aa:d9:62:
        b1:92:19:bb:af:34:15:8b:e2:71:6c:c0:33:f1:c0:9a:7a:e5:
        8c:52:9c:1d:ca:6e:7f:f4:5b:4c:73:86:ca:5d:62:37:ff:db:
        a5:7b:5d:fb:96:7c:8d:3f:df:b9:39:30:e7:a2:d4:ec:6d:8f:
        01:40:0c:e4:c5:cb:6c:7d:47:0e:8e:8c:04:f5:39:18:d9:aa:
        1c:cf:bc:f5:41:a7:a7:1e:15:c1:d1:06:d6:e0:a3:1e:31:1c:
        ed:84:ae:5d:fb:fa:9b:f7:13:ea:c3:00:c7:44:9a:7c:73:aa:
        95:72:71:98:08:b5:7f:d5:ff:f6:b9:f7:ce:fc:ce:a7:c0:21:
        9b:54:3f:b4:18:c1:65:bd:5d:62:be:ae:1d:b6:a8:9b:ba:17:
        c1:89:db:f3:f8:f4:8c:2a:2c:7b:ed:d1:15:d7:d0:fb:8f:9b:
        9c:4c:25:c5:c0:64:6f:c6:54:8a:28:e7:02:82:9c:54:68:2f:
        c6:16:90:41:24:0f:ab:c0:45:e3:cc:c3:7a:53:30:3b:f8:7a:
        f4:87:9f:e5:9c:3c:79:8f:00:57:4d:c1:59:1a:51:9d:c3:4f:
        97:1a:bd:62:f8:ca:89:39:04:51:dc:48:e8:58:db:18:08:55:
        d8:ea:a3:2e:b6:59:1a:bb:85:06:36:90:bf:0f:db:e1:3a:8c:
        fb:a9:9a:31:52:72:2f:56:51:0d:4e:41:2e:61:50:04:d5:90:
        eb:91:f4:97:1d:9f:46:4e:86:c3:0c:fd:9b:33:86:dd:fe:4a:
        85:f0:cf:09:e2:14:ec:89:71:7d:eb:d4:eb:0f:05:a4:54:db:
        7e:a9:f4:2d:58:95:b4:08:fe:04:e4:ed:d8:de:07:33:c5:df:
        8e:0e:0c:38:10:30:87:36:ca:f6:82:37:13:28:5d:5e:07:e1:
        d2:bf:52:ce:49:db:d8:f7:c6:27:52:e3:9d:68:6d:8f:2f:b1:
        4b:cf:25:22:81:3e:29:7d:df:0d:45:f8:be:7f:d8:fb:1c:00:
        0d:68:1d:9c:c4:f6:c4:20:99:40:a2:f6:81:28:9b:d5:d9:7b:
        ab:ee:a9:63:ca:c6:d5:53:39:98:e9:4c:47:5a:d9:25:76:5b:
        2d:21:0d:07:69:21:4a:77:39:d9:06:18:36:ba:33:54:74:28:
        5b:db:52:86:e4:92:6a:b0:3e:9e:ed:29:40:ff:93:4b:e0:cb:
        2e:7b:fc:9b:f3:05:b7:c1:d7:86:f9:71:b1:34:eb:f4:bb:35:
        75:b5:38:8e:05:9d:a5:82:ae:67:1b:aa:77:d2:6c:20:d1:2a:
        50:eb:9c:21:28:6c:ee:14
-----BEGIN CERTIFICATE-----
MIIEBTCCAe2gAwIBAgIESZYC0jANBgkqhkiG9w0BAQsFADAZMRcwFQYDVQQDDA5j
YS5leGFtcGxlLmNvbTAeFw0yNTAxMDIwNjM3NTVaFw0yNjAxMDIwNjM3NTVaMBsx
GTAXBgNVBAMMEHRlc3QuZXhhbXBsZS5jb20wggEiMA0GCSqGSIb3DQEBAQUAA4IB
DwAwggEKAoIBAQDPY3hGky4Fc2PLdKHVCUrcNPJJsuphnrbvK0cRvKSpOAoN3OqI
Sfh5yLGeYA+w8/6Yr+biiWTp5cWQMSCy9xkTCX3koFufs1xfxmLw/v/Z9Bh5+/52
ZmCEsi00mnYMQ6Q2l7Sx8EuwE9u06jA58xsRYWk01oRyLOuF6i+W7Ibux9s8iimu
Wa9gFw7HB6coS+agC/Cs0K4k75xPrc4JGyun2UUiRx4vwBrmBP8wiBaUt3CnkGaT
g5BKSxHDOGK7eTY5XEFhgMJqbCmFdlImKZftN9krx5nIotyYtMgnXYcOZkf0AJSt
p/Co/ZLXf2k+/uR24bk3/vEtdD4PRqlyOBiBAgMBAAGjUzBRMB0GA1UdDgQWBBTy
NoO8hDPyQ4n+mm88KEUFLJoYlzAfBgNVHSMEGDAWgBTyNoO8hDPyQ4n+mm88KEUF
LJoYlzAPBgNVHRMBAf8EBTADAQH/MA0GCSqGSIb3DQEBCwUAA4ICAQCnZmJz62rn
/NDn3FdrS7yq2WKxkhm7rzQVi+JxbMAz8cCaeuWMUpwdym5/9FtMc4bKXWI3/9ul
e137lnyNP9+5OTDnotTsbY8BQAzkxctsfUcOjowE9TkY2aocz7z1QaenHhXB0QbW
4KMeMRzthK5d+/qb9xPqwwDHRJp8c6qVcnGYCLV/1f/2uffO/M6nwCGbVD+0GMFl
vV1ivq4dtqibuhfBidvz+PSMKix77dEV19D7j5ucTCXFwGRvxlSKKOcCgpxUaC/G
FpBBJA+rwEXjzMN6UzA7+Hr0h5/lnDx5jwBXTcFZGlGdw0+XGr1i+MqJOQRR3Ejo
WNsYCFXY6qMutlkau4UGNpC/D9vhOoz7qZoxUnIvVlENTkEuYVAE1ZDrkfSXHZ9G
TobDDP2bM4bd/kqF8M8J4hTsiXF969TrDwWkVNt+qfQtWJW0CP4E5O3Y3gczxd+O
Dgw4EDCHNsr2gjcTKF1eB+HSv1LOSdvY98YnUuOdaG2PL7FLzyUigT4pfd8NRfi+
f9j7HAANaB2cxPbEIJlAovaBKJvV2Xur7qljysbVUzmY6UxHWtkldlstIQ0HaSFK
dznZBhg2ujNUdChb21KG5JJqsD6e7SlA/5NL4Msue/yb8wW3wdeG+XGxNOv0uzV1
tTiOBZ2lgq5nG6p30mwg0SpQ65whKGzuFA==
-----END CERTIFICATE-----
