Certificate:
    Data:
        Version: 3 (0x2)
        Serial Number:
            4a:8b:45:4e:12:db:07:ab:88:28:26:22:6e:66:e6:81:4a:70:ca:5f
        Signature Algorithm: sha256WithRSAEncryption
        Issuer: CN=b.example.com
        Validity
            Not Before: Jan  2 06:37:58 2025 GMT
            Not After : Feb  1 06:37:58 2025 GMT
        Subject: CN=b.example.com
        Subject Public Key Info:
            Public Key Algorithm: rsaEncryption
                Public-Key: (4096 bit)
                Modulus:
                    00:8e:f3:91:36:52:a8:ed:02:01:3c:dd:de:0f:72:
                    f7:09:82:88:82:69:6e:c1:1b:bc:a5:27:7c:b5:49:
                    e7:67:f1:67:b6:1d:35:8d:7a:a6:9a:6e:49:be:26:
                    9d:4e:fc:63:d2:32:7d:f0:89:8f:d8:60:a2:36:e5:
                    b6:87:2d:34:25:8e:3e:f3:dc:3b:c7:0c:46:77:a5:
                    51:b9:ae:a8:db:c2:24:7f:62:67:7f:79:a6:d2:f2:
                    db:ab:71:1b:89:e7:25:82:48:1d:e7:98:2a:79:d0:
                    8f:ed:f5:57:51:3a:55:75:d7:8a:6e:7c:13:70:6c:
                    a8:4f:60:2e:55:84:4b:b7:fb:a4:d1:8d:c8:df:de:
                    f5:f6:6c:50:43:94:e7:8b:02:66:e4:2e:d8:32:1e:
                    b3:3f:2b:32:f4:20:d2:bb:d6:a8:bb:7f:e4:6b:e5:
                    e0:74:33:11:8c:be:80:6e:d6:b6:31:b5:a6:8d:9b:
                    f7:4f:b6:15:5c:49:c2:a7:01:79:9d:df:97:ac:92:
                    ac:9a:67:04:22:9f:03:0e:84:4d:88:2a:19:63:46:
                    c0:22:dc:a7:fa:3d:2a:79:23:36:7d:73:45:b1:85:
                    fb:e6:c5:12:cc:15:19:9b:02:6b:55:d1:d0:0a:ab:
                    4a:46:66:31:79:40:51:94:0c:b7:7b:b7:d9:3b:de:
                    7d:1c:48:95:2d:1e:ac:2b:0f:f8:aa:97:90:b2:af:
                    1e:2a:9e:fe:f6:a8:f5:a2:3d:cc:82:d3:61:5b:b4:
                    b3:4c:7f:21:5a:32:19:a5:c7:d7:04:ce:0d:bd:06:
                    7b:af:6e:6c:60:a8:46:ce:09:db:80:68:07:ea:99:
                    23:62:88:66:2c:9c:9d:70:63:7e:20:6b:4e:e6:74:
                    06:c5:81:7c:7d:2d:6b:2b:14:29:35:10:5a:00:dd:
                    a6:39:d1:61:93:08:24:9c:72:da:dd:5b:9f:c7:bb:
                    69:ec:19:db:b4:51:c5:e8:ca:8f:f1:cf:45:0b:86:
                    14:7f:0f:28:b3:c9:b2:13:81:84:b8:20:6e:16:86:
                    61:e4:44:3e:4d:3c:2b:14:c6:e5:66:0c:3e:49:bf:
                    b6:bc:93:62:59:e5:a8:65:d5:7f:01:94:ec:da:6f:
                    dc:04:18:38:b3:83:71:0c:21:bf:bb:3b:27:09:80:
                    51:87:ee:3b:7a:eb:ff:46:e1:6f:84:b0:16:b4:55:
                    28:80:83:5e:0d:3c:85:a9:9d:81:93:03:17:17:0d:
                    20:37:ca:9f:f1:cc:7a:58:ae:b8:a1:94:9e:05:d0:
                    68:b8:0b:b7:f8:99:61:23:e1:0c:ba:80:eb:85:d8:
                    38:90:8f:47:ee:6e:c1:e4:78:24:91:06:9e:8b:fc:
                    54:bf:67
                Exponent: 65537 (0x10001)
        X509v3 extensions:
            X509v3 Subject Key Identifier: 
                3E:78:99:84:00:35:86:A8:7B:59:68:09:47:4F:E4:4E:D2:A1:B4:9E
    Signature Algorithm: sha256WithRSAEncryption
    Signature Value:
        68:c2:75:ef:c9:1f:de:52:d7:fb:61:07:61:37:34:92:d0:f9:
        70:16:fc:a8:74:ea:94:13:ac:16:65:c1:42:67:15:06:8d:9e:
        96:9c:22:f2:44:85:63:0a:a4:37:14:c9:6a:77:18:7b:c5:bb:
        f6:c7:5b:ff:b6:c6:bf:12:f4:8c:78:c1:fd:fd:20:af:05:ac:
        24:41:e8:4d:a1:c0:23:93:31:d7:fc:d3:90:ff:d4:ed:1c:6e:
        99:cc:84:67:32:f5:14:80:b6:6b:4c:c1:13:f5:c3:3c:e5:60:
        40:66:82:03:02:71:62:cc:40:bc:d2:30:9d:74:47:04:14:36:
        77:46:dd:5e:4e:13:0d:90:a8:a1:4d:9c:5e:98:1f:c2:db:0f:
        80:08:70:b9:2d:87:94:85:86:d0:13:7e:d6:eb:1d:98:de:8d:
        f3:0a:9c:7a:9b:52:ae:bc:5a:8c:d2:7e:ca:95:6a:e5:f8:5b:
        25:e5:37:e3:29:bd:01:96:99:d6:cb:7b:3a:75:44:de:49:8a:
        41:6a:8e:cc:c3:8f:86:32:eb:d2:07:28:5f:e4:0b:50:39:6a:
        a0:c7:29:74:c8:39:dd:af:32:dd:1f:38:a9:5d:c5:a0:08:0c:
        be:99:9b:39:30:21:a1:4e:b3:09:c9:19:2b:c8:8f:02:74:0f:
        e6:26:36:f9:c9:a4:a2:ac:bf:61:d5:1c:ec:8e:60:56:bf:76:
        bf:cc:3a:38:43:aa:bb:50:65:8b:e1:e6:76:65:6b:e5:20:b8:
        68:7a:3b:50:f9:82:fd:53:8e:02:60:b5:26:61:82:49:70:66:
        8c:9b:7a:94:a5:ba:a3:b8:a6:50:96:b9:a2:7c:a9:11:73:27:
        93:68:e4:d1:30:c8:be:ee:63:70:49:bd:3e:20:93:45:89:08:
        d9:48:8c:96:6a:9b:d4:9a:c7:05:29:8f:df:5e:10:be:d8:23:
        c3:0c:fc:ed:b9:b7:66:ce:b9:58:c5:05:98:e3:34:1a:35:06:
        15:d2:e5:7b:0d:0a:eb:3f:cb:34:7e:cb:e7:ce:5a:34:57:63:
        d7:5a:bf:71:fe:e7:cb:e9:74:5d:fd:53:0c:0c:02:0f:c3:a3:
        b0:ce:04:6c:7a:1a:1b:24:2e:59:f0:c7:ae:6e:34:b4:b8:98:
        d2:26:3b:55:11:35:4e:eb:1d:8d:60:46:0f:a4:68:5f:36:27:
        ff:66:ce:8e:34:c3:c1:8c:82:1d:c1:4e:f3:df:f8:05:c0:7a:
        a8:1b:64:a0:bc:f2:3b:f3:a1:d7:d2:ba:0b:d6:34:a4:01:ca:
        44:30:db:dc:5b:24:33:f3:f0:d1:ef:d8:b8:96:f6:fe:56:7b:
        49:1e:66:90:53:1a:a6:b2
-----BEGIN CERTIFICATE-----
MIIE3zCCAsegAwIBAgIUSotFThLbB6uIKCYibmbmgUpwyl8wDQYJKoZIhvcNAQEL
BQAwGDEWMBQGA1UEAwwNYi5leGFtcGxlLmNvbTAeFw0yNTAxMDIwNjM3NThaFw0y
NTAyMDEwNjM3NThaMBgxFjAUBgNVBAMMDWIuZXhhbXBsZS5jb20wggIiMA0GCSqG
SIb3DQEBAQUAA4ICDwAwggIKAoICAQCO85E2UqjtAgE83d4PcvcJgoiCaW7BG7yl
J3y1Sedn8We2HTWNeqaabkm+Jp1O/GPSMn3wiY/YYKI25baHLTQljj7z3DvHDEZ3
pVG5rqjbwiR/Ymd/eabS8turcRuJ5yWCSB3nmCp50I/t9VdROlV114pufBNwbKhP
YC5VhEu3+6TRjcjf3vX2bFBDlOeLAmbkLtgyHrM/KzL0INK71qi7f+Rr5eB0MxGM
voBu1rYxtaaNm/dPthVcScKnAXmd35eskqyaZwQinwMOhE2IKhljRsAi3Kf6PSp5
IzZ9c0WxhfvmxRLMFRmbAmtV0dAKq0pGZjF5QFGUDLd7t9k73n0cSJUtHqwrD/iq
l5Cyrx4qnv72qPWiPcyC02FbtLNMfyFaMhmlx9cEzg29BnuvbmxgqEbOCduAaAfq
mSNiiGYsnJ1wY34ga07mdAbFgXx9LWsrFCk1EFoA3aY50WGTCCScctrdW5/Hu2ns
Gdu0UcXoyo/xz0ULhhR/DyizybITgYS4IG4WhmHkRD5NPCsUxuVmDD5Jv7a8k2JZ
5ahl1X8BlOzab9wEGDizg3EMIb+7OycJgFGH7jt66/9G4W+EsBa0VSiAg14NPIWp
nYGTAxcXDSA3yp/xzHpYrrihlJ4F0Gi4C7f4mWEj4Qy6gOuF2DiQj0fubsHkeCSR
Bp6L/FS/ZwIDAQABoyEwHzAdBgNVHQ4EFgQUPniZhAA1hqh7WWgJR0/kTtKhtJ4w
DQYJKoZIhvcNAQELBQADggIBAGjCde/JH95S1/thB2E3NJLQ+XAW/Kh06pQTrBZl
wUJnFQaNnpacIvJEhWMKpDcUyWp3GHvFu/bHW/+2xr8S9Ix4wf39IK8FrCRB6E2h
wCOTMdf805D/1O0cbpnMhGcy9RSAtmtMwRP1wzzlYEBmggMCcWLMQLzSMJ10RwQU
NndG3V5OEw2QqKFNnF6YH8LbD4AIcLkth5SFhtATftbrHZjejfMKnHqbUq68WozS
fsqVauX4WyXlN+MpvQGWmdbLezp1RN5JikFqjszDj4Yy69IHKF/kC1A5aqDHKXTI
Od2vMt0fOKldxaAIDL6ZmzkwIaFOswnJGSvIjwJ0D+YmNvnJpKKsv2HVHOyOYFa/
dr/MOjhDqrtQZYvh5nZla+UguGh6O1D5gv1TjgJgtSZhgklwZoybepSluqO4plCW
uaJ8qRFzJ5No5NEwyL7uY3BJvT4gk0WJCNlIjJZqm9SaxwUpj99eEL7YI8MM/O25
t2bOuVjFBZjjNBo1BhXS5XsNCus/yzR+y+fOWjRXY9dav3H+58vpdF39UwwMAg/D
o7DOBGx6GhskLlnwx65uNLS4mNImO1URNU7rHY1gRg+kaF82J/9mzo40w8GMgh3B
TvPf+AXAeqgbZKC88jvzodfSugvWNKQBykQw29xbJDPz8NHv2LiW9v5We0keZpBT
Gqay
-----END CERTIFICATE-----
