Certificate:
    Data:
        Version: 3 (0x2)
        Serial Number:
            0a:42:fb:2e:4d:79:7f:eb:51:fa:48:5d:b6:3b:73:95:09:dd:b4:f6
        Signature Algorithm: sha256WithRSAEncryption
        Issuer: C=AU, L=Brisbane, O=CryptSoft Pty Ltd, CN=Eric Young, emailAddress=eay@mincom.oz.au
        Validity
            Not Before: Jan  2 06:37:30 2025 GMT
            Not After : Jan  2 06:37:30 2025 GMT
        Subject: C=AU, L=Brisbane, O=CryptSoft Pty Ltd, CN=Eric Young, emailAddress=eay@mincom.oz.au
        Subject Public Key Info:
            Public Key Algorithm: rsaEncryption
                Public-Key: (512 bit)
                Modulus:
                    00:aa:db:7a:a9:2e:46:4f:15:71:19:96:16:6b:4f:
                    f8:bb:e2:30:1d:fe:e9:d8:b3:59:6d:c3:c1:a7:df:
                    ce:7c:87:18:01:70:50:9f:c8:4e:fd:17:b5:bb:02:
                    ca:5d:d0:a3:22:86:86:b3:80:cb:74:6f:3c:ae:4c:
                    df:c8:ae:5d:3d
                Exponent: 65537 (0x10001)
        X509v3 extensions:
            X509v3 Subject Key Identifier: 
                FE:FF:49:4F:D8:25:BD:1D:98:7D:E4:B1:9C:02:91:F6:0D:9F:D6:C9
    Signature Algorithm: sha256WithRSAEncryption
    Signature Value:
        0c:ca:f8:1e:af:34:18:0a:f6:bc:50:bb:65:2f:b9:19:e8:32:
        a4:13:68:13:51:1b:e9:62:96:dc:b6:bf:37:01:53:3a:5c:5e:
        86:a7:8c:0f:02:ef:7c:94:01:a4:d2:b0:e1:a5:f1:de:b7:b6:
        99:8a:d8:a9:02:c3:80:2b:5d:ee
-----BEGIN CERTIFICATE-----
MIICCTCCAbOgAwIBAgIUCkL7Lk15f+tR+khdtjtzlQndtPYwDQYJKoZIhvcNAQEL
BQAwcjELMAkGA1UEBhMCQVUxETAPBgNVBAcMCEJyaXNiYW5lMRowGAYDVQQKDBFD
cnlwdFNvZnQgUHR5IEx0ZDETMBEGA1UEAwwKRXJpYyBZb3VuZzEfMB0GCSqGSIb3
DQEJARYQZWF5QG1pbmNvbS5vei5hdTAeFw0yNTAxMDIwNjM3MzBaFw0yNTAxMDIw
NjM3MzBaMHIxCzAJBgNVBAYTAkFVMREwDwYDVQQHDAhCcmlzYmFuZTEaMBgGA1UE
CgwRQ3J5cHRTb2Z0IFB0eSBMdGQxEzARBgNVBAMMCkVyaWMgWW91bmcxHzAdBgkq
hkiG9w0BCQEWEGVheUBtaW5jb20ub3ouYXUwXDANBgkqhkiG9w0BAQEFAANLADBI
AkEAqtt6qS5GTxVxGZYWa0/4u+IwHf7p2LNZbcPBp9/OfIcYAXBQn8hO/Re1uwLK
XdCjIoaGs4DLdG88rkzfyK5dPQIDAQABoyEwHzAdBgNVHQ4EFgQU/v9JT9glvR2Y
feSxnAKR9g2f1skwDQYJKoZIhvcNAQELBQADQQAMyvgerzQYCva8ULtlL7kZ6DKk
E2gTURvpYpbctr83AVM6XF6Gp4wPAu98lAGk0rDhpfHet7aZitipAsOAK13u
-----END CERTIFICATE-----
